
runpentadecimal:     file format elf64-x86-64


Disassembly of section .init:

0000000000001000 <_init>:
    1000:	f3 0f 1e fa          	endbr64
    1004:	48 83 ec 08          	sub    rsp,0x8
    1008:	48 8b 05 d9 2f 00 00 	mov    rax,QWORD PTR [rip+0x2fd9]        # 3fe8 <__gmon_start__>
    100f:	48 85 c0             	test   rax,rax
    1012:	74 02                	je     1016 <_init+0x16>
    1014:	ff d0                	call   rax
    1016:	48 83 c4 08          	add    rsp,0x8
    101a:	c3                   	ret

Disassembly of section .plt:

0000000000001020 <.plt>:
    1020:	ff 35 32 2f 00 00    	push   QWORD PTR [rip+0x2f32]        # 3f58 <_GLOBAL_OFFSET_TABLE_+0x8>
    1026:	f2 ff 25 33 2f 00 00 	bnd jmp QWORD PTR [rip+0x2f33]        # 3f60 <_GLOBAL_OFFSET_TABLE_+0x10>
    102d:	0f 1f 00             	nop    DWORD PTR [rax]
    1030:	f3 0f 1e fa          	endbr64
    1034:	68 00 00 00 00       	push   0x0
    1039:	f2 e9 e1 ff ff ff    	bnd jmp 1020 <.plt>
    103f:	90                   	nop
    1040:	f3 0f 1e fa          	endbr64
    1044:	68 01 00 00 00       	push   0x1
    1049:	f2 e9 d1 ff ff ff    	bnd jmp 1020 <.plt>
    104f:	90                   	nop
    1050:	f3 0f 1e fa          	endbr64
    1054:	68 02 00 00 00       	push   0x2
    1059:	f2 e9 c1 ff ff ff    	bnd jmp 1020 <.plt>
    105f:	90                   	nop
    1060:	f3 0f 1e fa          	endbr64
    1064:	68 03 00 00 00       	push   0x3
    1069:	f2 e9 b1 ff ff ff    	bnd jmp 1020 <.plt>
    106f:	90                   	nop
    1070:	f3 0f 1e fa          	endbr64
    1074:	68 04 00 00 00       	push   0x4
    1079:	f2 e9 a1 ff ff ff    	bnd jmp 1020 <.plt>
    107f:	90                   	nop
    1080:	f3 0f 1e fa          	endbr64
    1084:	68 05 00 00 00       	push   0x5
    1089:	f2 e9 91 ff ff ff    	bnd jmp 1020 <.plt>
    108f:	90                   	nop
    1090:	f3 0f 1e fa          	endbr64
    1094:	68 06 00 00 00       	push   0x6
    1099:	f2 e9 81 ff ff ff    	bnd jmp 1020 <.plt>
    109f:	90                   	nop
    10a0:	f3 0f 1e fa          	endbr64
    10a4:	68 07 00 00 00       	push   0x7
    10a9:	f2 e9 71 ff ff ff    	bnd jmp 1020 <.plt>
    10af:	90                   	nop
    10b0:	f3 0f 1e fa          	endbr64
    10b4:	68 08 00 00 00       	push   0x8
    10b9:	f2 e9 61 ff ff ff    	bnd jmp 1020 <.plt>
    10bf:	90                   	nop
    10c0:	f3 0f 1e fa          	endbr64
    10c4:	68 09 00 00 00       	push   0x9
    10c9:	f2 e9 51 ff ff ff    	bnd jmp 1020 <.plt>
    10cf:	90                   	nop
    10d0:	f3 0f 1e fa          	endbr64
    10d4:	68 0a 00 00 00       	push   0xa
    10d9:	f2 e9 41 ff ff ff    	bnd jmp 1020 <.plt>
    10df:	90                   	nop
    10e0:	f3 0f 1e fa          	endbr64
    10e4:	68 0b 00 00 00       	push   0xb
    10e9:	f2 e9 31 ff ff ff    	bnd jmp 1020 <.plt>
    10ef:	90                   	nop
    10f0:	f3 0f 1e fa          	endbr64
    10f4:	68 0c 00 00 00       	push   0xc
    10f9:	f2 e9 21 ff ff ff    	bnd jmp 1020 <.plt>
    10ff:	90                   	nop
    1100:	f3 0f 1e fa          	endbr64
    1104:	68 0d 00 00 00       	push   0xd
    1109:	f2 e9 11 ff ff ff    	bnd jmp 1020 <.plt>
    110f:	90                   	nop

Disassembly of section .plt.got:

0000000000001110 <__cxa_finalize@plt>:
    1110:	f3 0f 1e fa          	endbr64
    1114:	f2 ff 25 dd 2e 00 00 	bnd jmp QWORD PTR [rip+0x2edd]        # 3ff8 <__cxa_finalize@GLIBC_2.2.5>
    111b:	0f 1f 44 00 00       	nop    DWORD PTR [rax+rax*1+0x0]

Disassembly of section .plt.sec:

0000000000001120 <free@plt>:
    1120:	f3 0f 1e fa          	endbr64
    1124:	f2 ff 25 3d 2e 00 00 	bnd jmp QWORD PTR [rip+0x2e3d]        # 3f68 <free@GLIBC_2.2.5>
    112b:	0f 1f 44 00 00       	nop    DWORD PTR [rax+rax*1+0x0]

0000000000001130 <__stack_chk_fail@plt>:
    1130:	f3 0f 1e fa          	endbr64
    1134:	f2 ff 25 35 2e 00 00 	bnd jmp QWORD PTR [rip+0x2e35]        # 3f70 <__stack_chk_fail@GLIBC_2.4>
    113b:	0f 1f 44 00 00       	nop    DWORD PTR [rax+rax*1+0x0]

0000000000001140 <mmap@plt>:
    1140:	f3 0f 1e fa          	endbr64
    1144:	f2 ff 25 2d 2e 00 00 	bnd jmp QWORD PTR [rip+0x2e2d]        # 3f78 <mmap@GLIBC_2.2.5>
    114b:	0f 1f 44 00 00       	nop    DWORD PTR [rax+rax*1+0x0]

0000000000001150 <close@plt>:
    1150:	f3 0f 1e fa          	endbr64
    1154:	f2 ff 25 25 2e 00 00 	bnd jmp QWORD PTR [rip+0x2e25]        # 3f80 <close@GLIBC_2.2.5>
    115b:	0f 1f 44 00 00       	nop    DWORD PTR [rax+rax*1+0x0]

0000000000001160 <strcmp@plt>:
    1160:	f3 0f 1e fa          	endbr64
    1164:	f2 ff 25 1d 2e 00 00 	bnd jmp QWORD PTR [rip+0x2e1d]        # 3f88 <strcmp@GLIBC_2.2.5>
    116b:	0f 1f 44 00 00       	nop    DWORD PTR [rax+rax*1+0x0]

0000000000001170 <getchar@plt>:
    1170:	f3 0f 1e fa          	endbr64
    1174:	f2 ff 25 15 2e 00 00 	bnd jmp QWORD PTR [rip+0x2e15]        # 3f90 <getchar@GLIBC_2.2.5>
    117b:	0f 1f 44 00 00       	nop    DWORD PTR [rax+rax*1+0x0]

0000000000001180 <fprintf@plt>:
    1180:	f3 0f 1e fa          	endbr64
    1184:	f2 ff 25 0d 2e 00 00 	bnd jmp QWORD PTR [rip+0x2e0d]        # 3f98 <fprintf@GLIBC_2.2.5>
    118b:	0f 1f 44 00 00       	nop    DWORD PTR [rax+rax*1+0x0]

0000000000001190 <memcpy@plt>:
    1190:	f3 0f 1e fa          	endbr64
    1194:	f2 ff 25 05 2e 00 00 	bnd jmp QWORD PTR [rip+0x2e05]        # 3fa0 <memcpy@GLIBC_2.14>
    119b:	0f 1f 44 00 00       	nop    DWORD PTR [rax+rax*1+0x0]

00000000000011a0 <malloc@plt>:
    11a0:	f3 0f 1e fa          	endbr64
    11a4:	f2 ff 25 fd 2d 00 00 	bnd jmp QWORD PTR [rip+0x2dfd]        # 3fa8 <malloc@GLIBC_2.2.5>
    11ab:	0f 1f 44 00 00       	nop    DWORD PTR [rax+rax*1+0x0]

00000000000011b0 <__fxstat@plt>:
    11b0:	f3 0f 1e fa          	endbr64
    11b4:	f2 ff 25 f5 2d 00 00 	bnd jmp QWORD PTR [rip+0x2df5]        # 3fb0 <__fxstat@GLIBC_2.2.5>
    11bb:	0f 1f 44 00 00       	nop    DWORD PTR [rax+rax*1+0x0]

00000000000011c0 <realloc@plt>:
    11c0:	f3 0f 1e fa          	endbr64
    11c4:	f2 ff 25 ed 2d 00 00 	bnd jmp QWORD PTR [rip+0x2ded]        # 3fb8 <realloc@GLIBC_2.2.5>
    11cb:	0f 1f 44 00 00       	nop    DWORD PTR [rax+rax*1+0x0]

00000000000011d0 <open@plt>:
    11d0:	f3 0f 1e fa          	endbr64
    11d4:	f2 ff 25 e5 2d 00 00 	bnd jmp QWORD PTR [rip+0x2de5]        # 3fc0 <open@GLIBC_2.2.5>
    11db:	0f 1f 44 00 00       	nop    DWORD PTR [rax+rax*1+0x0]

00000000000011e0 <perror@plt>:
    11e0:	f3 0f 1e fa          	endbr64
    11e4:	f2 ff 25 dd 2d 00 00 	bnd jmp QWORD PTR [rip+0x2ddd]        # 3fc8 <perror@GLIBC_2.2.5>
    11eb:	0f 1f 44 00 00       	nop    DWORD PTR [rax+rax*1+0x0]

00000000000011f0 <fwrite@plt>:
    11f0:	f3 0f 1e fa          	endbr64
    11f4:	f2 ff 25 d5 2d 00 00 	bnd jmp QWORD PTR [rip+0x2dd5]        # 3fd0 <fwrite@GLIBC_2.2.5>
    11fb:	0f 1f 44 00 00       	nop    DWORD PTR [rax+rax*1+0x0]

Disassembly of section .text:

0000000000001200 <_start>:
    1200:	f3 0f 1e fa          	endbr64
    1204:	31 ed                	xor    ebp,ebp
    1206:	49 89 d1             	mov    r9,rdx
    1209:	5e                   	pop    rsi
    120a:	48 89 e2             	mov    rdx,rsp
    120d:	48 83 e4 f0          	and    rsp,0xfffffffffffffff0
    1211:	50                   	push   rax
    1212:	54                   	push   rsp
    1213:	4c 8d 05 56 06 00 00 	lea    r8,[rip+0x656]        # 1870 <__libc_csu_fini>
    121a:	48 8d 0d df 05 00 00 	lea    rcx,[rip+0x5df]        # 1800 <__libc_csu_init>
    1221:	48 8d 3d c1 00 00 00 	lea    rdi,[rip+0xc1]        # 12e9 <main>
    1228:	ff 15 b2 2d 00 00    	call   QWORD PTR [rip+0x2db2]        # 3fe0 <__libc_start_main@GLIBC_2.2.5>
    122e:	f4                   	hlt
    122f:	90                   	nop

0000000000001230 <deregister_tm_clones>:
    1230:	48 8d 3d d9 2d 00 00 	lea    rdi,[rip+0x2dd9]        # 4010 <__TMC_END__>
    1237:	48 8d 05 d2 2d 00 00 	lea    rax,[rip+0x2dd2]        # 4010 <__TMC_END__>
    123e:	48 39 f8             	cmp    rax,rdi
    1241:	74 15                	je     1258 <deregister_tm_clones+0x28>
    1243:	48 8b 05 8e 2d 00 00 	mov    rax,QWORD PTR [rip+0x2d8e]        # 3fd8 <_ITM_deregisterTMCloneTable>
    124a:	48 85 c0             	test   rax,rax
    124d:	74 09                	je     1258 <deregister_tm_clones+0x28>
    124f:	ff e0                	jmp    rax
    1251:	0f 1f 80 00 00 00 00 	nop    DWORD PTR [rax+0x0]
    1258:	c3                   	ret
    1259:	0f 1f 80 00 00 00 00 	nop    DWORD PTR [rax+0x0]

0000000000001260 <register_tm_clones>:
    1260:	48 8d 3d a9 2d 00 00 	lea    rdi,[rip+0x2da9]        # 4010 <__TMC_END__>
    1267:	48 8d 35 a2 2d 00 00 	lea    rsi,[rip+0x2da2]        # 4010 <__TMC_END__>
    126e:	48 29 fe             	sub    rsi,rdi
    1271:	48 89 f0             	mov    rax,rsi
    1274:	48 c1 ee 3f          	shr    rsi,0x3f
    1278:	48 c1 f8 03          	sar    rax,0x3
    127c:	48 01 c6             	add    rsi,rax
    127f:	48 d1 fe             	sar    rsi,1
    1282:	74 14                	je     1298 <register_tm_clones+0x38>
    1284:	48 8b 05 65 2d 00 00 	mov    rax,QWORD PTR [rip+0x2d65]        # 3ff0 <_ITM_registerTMCloneTable>
    128b:	48 85 c0             	test   rax,rax
    128e:	74 08                	je     1298 <register_tm_clones+0x38>
    1290:	ff e0                	jmp    rax
    1292:	66 0f 1f 44 00 00    	nop    WORD PTR [rax+rax*1+0x0]
    1298:	c3                   	ret
    1299:	0f 1f 80 00 00 00 00 	nop    DWORD PTR [rax+0x0]

00000000000012a0 <__do_global_dtors_aux>:
    12a0:	f3 0f 1e fa          	endbr64
    12a4:	80 3d 7d 2d 00 00 00 	cmp    BYTE PTR [rip+0x2d7d],0x0        # 4028 <completed.8061>
    12ab:	75 2b                	jne    12d8 <__do_global_dtors_aux+0x38>
    12ad:	55                   	push   rbp
    12ae:	48 83 3d 42 2d 00 00 	cmp    QWORD PTR [rip+0x2d42],0x0        # 3ff8 <__cxa_finalize@GLIBC_2.2.5>
    12b5:	00 
    12b6:	48 89 e5             	mov    rbp,rsp
    12b9:	74 0c                	je     12c7 <__do_global_dtors_aux+0x27>
    12bb:	48 8b 3d 46 2d 00 00 	mov    rdi,QWORD PTR [rip+0x2d46]        # 4008 <__dso_handle>
    12c2:	e8 49 fe ff ff       	call   1110 <__cxa_finalize@plt>
    12c7:	e8 64 ff ff ff       	call   1230 <deregister_tm_clones>
    12cc:	c6 05 55 2d 00 00 01 	mov    BYTE PTR [rip+0x2d55],0x1        # 4028 <completed.8061>
    12d3:	5d                   	pop    rbp
    12d4:	c3                   	ret
    12d5:	0f 1f 00             	nop    DWORD PTR [rax]
    12d8:	c3                   	ret
    12d9:	0f 1f 80 00 00 00 00 	nop    DWORD PTR [rax+0x0]

00000000000012e0 <frame_dummy>:
    12e0:	f3 0f 1e fa          	endbr64
    12e4:	e9 77 ff ff ff       	jmp    1260 <register_tm_clones>

00000000000012e9 <main>:
    12e9:	f3 0f 1e fa          	endbr64
    12ed:	55                   	push   rbp
    12ee:	48 89 e5             	mov    rbp,rsp
    12f1:	4c 8d 9c 24 00 80 ff 	lea    r11,[rsp-0x8000]
    12f8:	ff 
    12f9:	48 81 ec 00 10 00 00 	sub    rsp,0x1000
    1300:	48 83 0c 24 00       	or     QWORD PTR [rsp],0x0
    1305:	4c 39 dc             	cmp    rsp,r11
    1308:	75 ef                	jne    12f9 <main+0x10>
    130a:	48 83 ec 50          	sub    rsp,0x50
    130e:	89 bd bc 7f ff ff    	mov    DWORD PTR [rbp-0x8044],edi
    1314:	48 89 b5 b0 7f ff ff 	mov    QWORD PTR [rbp-0x8050],rsi
    131b:	64 48 8b 04 25 28 00 	mov    rax,QWORD PTR fs:0x28
    1322:	00 00 
    1324:	48 89 45 f8          	mov    QWORD PTR [rbp-0x8],rax
    1328:	31 c0                	xor    eax,eax
    132a:	83 bd bc 7f ff ff 01 	cmp    DWORD PTR [rbp-0x8044],0x1
    1331:	7f 2f                	jg     1362 <main+0x79>
    1333:	48 8b 85 b0 7f ff ff 	mov    rax,QWORD PTR [rbp-0x8050]
    133a:	48 8b 10             	mov    rdx,QWORD PTR [rax]
    133d:	48 8b 05 dc 2c 00 00 	mov    rax,QWORD PTR [rip+0x2cdc]        # 4020 <stderr@GLIBC_2.2.5>
    1344:	48 8d 35 bd 0c 00 00 	lea    rsi,[rip+0xcbd]        # 2008 <_IO_stdin_used+0x8>
    134b:	48 89 c7             	mov    rdi,rax
    134e:	b8 00 00 00 00       	mov    eax,0x0
    1353:	e8 28 fe ff ff       	call   1180 <fprintf@plt>
    1358:	b8 01 00 00 00       	mov    eax,0x1
    135d:	e9 83 04 00 00       	jmp    17e5 <main+0x4fc>
    1362:	48 8b 85 b0 7f ff ff 	mov    rax,QWORD PTR [rbp-0x8050]
    1369:	48 83 c0 08          	add    rax,0x8
    136d:	48 8b 00             	mov    rax,QWORD PTR [rax]
    1370:	48 8d 35 ab 0c 00 00 	lea    rsi,[rip+0xcab]        # 2022 <_IO_stdin_used+0x22>
    1377:	48 89 c7             	mov    rdi,rax
    137a:	e8 e1 fd ff ff       	call   1160 <strcmp@plt>
    137f:	85 c0                	test   eax,eax
    1381:	0f 85 80 01 00 00    	jne    1507 <main+0x21e>
    1387:	c7 85 d0 7f ff ff 00 	mov    DWORD PTR [rbp-0x8030],0x1000
    138e:	10 00 00 
    1391:	8b 85 d0 7f ff ff    	mov    eax,DWORD PTR [rbp-0x8030]
    1397:	48 98                	cdqe
    1399:	48 89 c7             	mov    rdi,rax
    139c:	e8 ff fd ff ff       	call   11a0 <malloc@plt>
    13a1:	48 89 85 e8 7f ff ff 	mov    QWORD PTR [rbp-0x8018],rax
    13a8:	c7 85 cc 7f ff ff 00 	mov    DWORD PTR [rbp-0x8034],0x0
    13af:	00 00 00 
    13b2:	c7 85 c8 7f ff ff 00 	mov    DWORD PTR [rbp-0x8038],0x0
    13b9:	00 00 00 
    13bc:	c7 85 d4 7f ff ff 00 	mov    DWORD PTR [rbp-0x802c],0x0
    13c3:	00 00 00 
    13c6:	e9 9c 00 00 00       	jmp    1467 <main+0x17e>
    13cb:	8b 85 d4 7f ff ff    	mov    eax,DWORD PTR [rbp-0x802c]
    13d1:	3b 85 d0 7f ff ff    	cmp    eax,DWORD PTR [rbp-0x8030]
    13d7:	75 2c                	jne    1405 <main+0x11c>
    13d9:	81 85 d0 7f ff ff 00 	add    DWORD PTR [rbp-0x8030],0x1000
    13e0:	10 00 00 
    13e3:	8b 85 d0 7f ff ff    	mov    eax,DWORD PTR [rbp-0x8030]
    13e9:	48 63 d0             	movsxd rdx,eax
    13ec:	48 8b 85 e8 7f ff ff 	mov    rax,QWORD PTR [rbp-0x8018]
    13f3:	48 89 d6             	mov    rsi,rdx
    13f6:	48 89 c7             	mov    rdi,rax
    13f9:	e8 c2 fd ff ff       	call   11c0 <realloc@plt>
    13fe:	48 89 85 e8 7f ff ff 	mov    QWORD PTR [rbp-0x8018],rax
    1405:	8b 85 d4 7f ff ff    	mov    eax,DWORD PTR [rbp-0x802c]
    140b:	8d 50 01             	lea    edx,[rax+0x1]
    140e:	89 95 d4 7f ff ff    	mov    DWORD PTR [rbp-0x802c],edx
    1414:	48 63 d0             	movsxd rdx,eax
    1417:	48 8b 85 e8 7f ff ff 	mov    rax,QWORD PTR [rbp-0x8018]
    141e:	48 01 d0             	add    rax,rdx
    1421:	8b 95 dc 7f ff ff    	mov    edx,DWORD PTR [rbp-0x8024]
    1427:	88 10                	mov    BYTE PTR [rax],dl
    1429:	83 bd dc 7f ff ff 00 	cmp    DWORD PTR [rbp-0x8024],0x0
    1430:	75 07                	jne    1439 <main+0x150>
    1432:	83 85 cc 7f ff ff 01 	add    DWORD PTR [rbp-0x8034],0x1
    1439:	8b 85 dc 7f ff ff    	mov    eax,DWORD PTR [rbp-0x8024]
    143f:	83 e0 0f             	and    eax,0xf
    1442:	83 f8 0f             	cmp    eax,0xf
    1445:	75 07                	jne    144e <main+0x165>
    1447:	83 85 c8 7f ff ff 01 	add    DWORD PTR [rbp-0x8038],0x1
    144e:	8b 85 dc 7f ff ff    	mov    eax,DWORD PTR [rbp-0x8024]
    1454:	25 f0 00 00 00       	and    eax,0xf0
    1459:	3d f0 00 00 00       	cmp    eax,0xf0
    145e:	75 07                	jne    1467 <main+0x17e>
    1460:	83 85 c8 7f ff ff 01 	add    DWORD PTR [rbp-0x8038],0x1
    1467:	e8 04 fd ff ff       	call   1170 <getchar@plt>
    146c:	89 85 dc 7f ff ff    	mov    DWORD PTR [rbp-0x8024],eax
    1472:	83 bd dc 7f ff ff ff 	cmp    DWORD PTR [rbp-0x8024],0xffffffff
    1479:	0f 85 4c ff ff ff    	jne    13cb <main+0xe2>
    147f:	8b 85 d4 7f ff ff    	mov    eax,DWORD PTR [rbp-0x802c]
    1485:	48 98                	cdqe
    1487:	41 b9 00 00 00 00    	mov    r9d,0x0
    148d:	41 b8 ff ff ff ff    	mov    r8d,0xffffffff
    1493:	b9 22 00 00 00       	mov    ecx,0x22
    1498:	ba 07 00 00 00       	mov    edx,0x7
    149d:	48 89 c6             	mov    rsi,rax
    14a0:	bf 00 00 00 00       	mov    edi,0x0
    14a5:	e8 96 fc ff ff       	call   1140 <mmap@plt>
    14aa:	48 89 85 e0 7f ff ff 	mov    QWORD PTR [rbp-0x8020],rax
    14b1:	48 83 bd e0 7f ff ff 	cmp    QWORD PTR [rbp-0x8020],0xffffffffffffffff
    14b8:	ff 
    14b9:	75 16                	jne    14d1 <main+0x1e8>
    14bb:	48 8d 3d 62 0b 00 00 	lea    rdi,[rip+0xb62]        # 2024 <_IO_stdin_used+0x24>
    14c2:	e8 19 fd ff ff       	call   11e0 <perror@plt>
    14c7:	b8 01 00 00 00       	mov    eax,0x1
    14cc:	e9 14 03 00 00       	jmp    17e5 <main+0x4fc>
    14d1:	8b 85 d4 7f ff ff    	mov    eax,DWORD PTR [rbp-0x802c]
    14d7:	48 63 d0             	movsxd rdx,eax
    14da:	48 8b 8d e8 7f ff ff 	mov    rcx,QWORD PTR [rbp-0x8018]
    14e1:	48 8b 85 e0 7f ff ff 	mov    rax,QWORD PTR [rbp-0x8020]
    14e8:	48 89 ce             	mov    rsi,rcx
    14eb:	48 89 c7             	mov    rdi,rax
    14ee:	e8 9d fc ff ff       	call   1190 <memcpy@plt>
    14f3:	48 8b 85 e8 7f ff ff 	mov    rax,QWORD PTR [rbp-0x8018]
    14fa:	48 89 c7             	mov    rdi,rax
    14fd:	e8 1e fc ff ff       	call   1120 <free@plt>
    1502:	e9 a7 01 00 00       	jmp    16ae <main+0x3c5>
    1507:	48 8b 85 b0 7f ff ff 	mov    rax,QWORD PTR [rbp-0x8050]
    150e:	48 83 c0 08          	add    rax,0x8
    1512:	48 8b 00             	mov    rax,QWORD PTR [rax]
    1515:	be 00 00 00 00       	mov    esi,0x0
    151a:	48 89 c7             	mov    rdi,rax
    151d:	b8 00 00 00 00       	mov    eax,0x0
    1522:	e8 a9 fc ff ff       	call   11d0 <open@plt>
    1527:	89 85 d8 7f ff ff    	mov    DWORD PTR [rbp-0x8028],eax
    152d:	83 bd d8 7f ff ff 00 	cmp    DWORD PTR [rbp-0x8028],0x0
    1534:	79 16                	jns    154c <main+0x263>
    1536:	48 8d 3d f5 0a 00 00 	lea    rdi,[rip+0xaf5]        # 2032 <_IO_stdin_used+0x32>
    153d:	e8 9e fc ff ff       	call   11e0 <perror@plt>
    1542:	b8 01 00 00 00       	mov    eax,0x1
    1547:	e9 99 02 00 00       	jmp    17e5 <main+0x4fc>
    154c:	48 8d 95 f0 7f ff ff 	lea    rdx,[rbp-0x8010]
    1553:	8b 85 d8 7f ff ff    	mov    eax,DWORD PTR [rbp-0x8028]
    1559:	48 89 d6             	mov    rsi,rdx
    155c:	89 c7                	mov    edi,eax
    155e:	e8 1d 03 00 00       	call   1880 <__fstat>
    1563:	85 c0                	test   eax,eax
    1565:	74 16                	je     157d <main+0x294>
    1567:	48 8d 3d d2 0a 00 00 	lea    rdi,[rip+0xad2]        # 2040 <_IO_stdin_used+0x40>
    156e:	e8 6d fc ff ff       	call   11e0 <perror@plt>
    1573:	b8 01 00 00 00       	mov    eax,0x1
    1578:	e9 68 02 00 00       	jmp    17e5 <main+0x4fc>
    157d:	48 8b 85 20 80 ff ff 	mov    rax,QWORD PTR [rbp-0x7fe0]
    1584:	48 89 c6             	mov    rsi,rax
    1587:	8b 85 d8 7f ff ff    	mov    eax,DWORD PTR [rbp-0x8028]
    158d:	41 b9 00 00 00 00    	mov    r9d,0x0
    1593:	41 89 c0             	mov    r8d,eax
    1596:	b9 02 00 00 00       	mov    ecx,0x2
    159b:	ba 07 00 00 00       	mov    edx,0x7
    15a0:	bf 00 00 00 00       	mov    edi,0x0
    15a5:	e8 96 fb ff ff       	call   1140 <mmap@plt>
    15aa:	48 89 85 e0 7f ff ff 	mov    QWORD PTR [rbp-0x8020],rax
    15b1:	48 83 bd e0 7f ff ff 	cmp    QWORD PTR [rbp-0x8020],0xffffffffffffffff
    15b8:	ff 
    15b9:	75 16                	jne    15d1 <main+0x2e8>
    15bb:	48 8d 3d 62 0a 00 00 	lea    rdi,[rip+0xa62]        # 2024 <_IO_stdin_used+0x24>
    15c2:	e8 19 fc ff ff       	call   11e0 <perror@plt>
    15c7:	b8 01 00 00 00       	mov    eax,0x1
    15cc:	e9 14 02 00 00       	jmp    17e5 <main+0x4fc>
    15d1:	8b 85 d8 7f ff ff    	mov    eax,DWORD PTR [rbp-0x8028]
    15d7:	89 c7                	mov    edi,eax
    15d9:	e8 72 fb ff ff       	call   1150 <close@plt>
    15de:	c7 85 c4 7f ff ff 00 	mov    DWORD PTR [rbp-0x803c],0x0
    15e5:	00 00 00 
    15e8:	c7 85 c8 7f ff ff 00 	mov    DWORD PTR [rbp-0x8038],0x0
    15ef:	00 00 00 
    15f2:	c7 85 cc 7f ff ff 00 	mov    DWORD PTR [rbp-0x8034],0x0
    15f9:	00 00 00 
    15fc:	48 8b 85 e0 7f ff ff 	mov    rax,QWORD PTR [rbp-0x8020]
    1603:	48 89 85 e8 7f ff ff 	mov    QWORD PTR [rbp-0x8018],rax
    160a:	eb 7c                	jmp    1688 <main+0x39f>
    160c:	8b 85 c4 7f ff ff    	mov    eax,DWORD PTR [rbp-0x803c]
    1612:	48 63 d0             	movsxd rdx,eax
    1615:	48 8b 85 e8 7f ff ff 	mov    rax,QWORD PTR [rbp-0x8018]
    161c:	48 01 d0             	add    rax,rdx
    161f:	0f b6 00             	movzx  eax,BYTE PTR [rax]
    1622:	84 c0                	test   al,al
    1624:	75 07                	jne    162d <main+0x344>
    1626:	83 85 cc 7f ff ff 01 	add    DWORD PTR [rbp-0x8034],0x1
    162d:	8b 85 c4 7f ff ff    	mov    eax,DWORD PTR [rbp-0x803c]
    1633:	48 63 d0             	movsxd rdx,eax
    1636:	48 8b 85 e8 7f ff ff 	mov    rax,QWORD PTR [rbp-0x8018]
    163d:	48 01 d0             	add    rax,rdx
    1640:	0f b6 00             	movzx  eax,BYTE PTR [rax]
    1643:	0f b6 c0             	movzx  eax,al
    1646:	83 e0 0f             	and    eax,0xf
    1649:	83 f8 0f             	cmp    eax,0xf
    164c:	75 07                	jne    1655 <main+0x36c>
    164e:	83 85 c8 7f ff ff 01 	add    DWORD PTR [rbp-0x8038],0x1
    1655:	8b 85 c4 7f ff ff    	mov    eax,DWORD PTR [rbp-0x803c]
    165b:	48 63 d0             	movsxd rdx,eax
    165e:	48 8b 85 e8 7f ff ff 	mov    rax,QWORD PTR [rbp-0x8018]
    1665:	48 01 d0             	add    rax,rdx
    1668:	0f b6 00             	movzx  eax,BYTE PTR [rax]
    166b:	0f b6 c0             	movzx  eax,al
    166e:	25 f0 00 00 00       	and    eax,0xf0
    1673:	3d f0 00 00 00       	cmp    eax,0xf0
    1678:	75 07                	jne    1681 <main+0x398>
    167a:	83 85 c8 7f ff ff 01 	add    DWORD PTR [rbp-0x8038],0x1
    1681:	83 85 c4 7f ff ff 01 	add    DWORD PTR [rbp-0x803c],0x1
    1688:	8b 85 c4 7f ff ff    	mov    eax,DWORD PTR [rbp-0x803c]
    168e:	48 63 d0             	movsxd rdx,eax
    1691:	48 8b 85 20 80 ff ff 	mov    rax,QWORD PTR [rbp-0x7fe0]
    1698:	48 39 c2             	cmp    rdx,rax
    169b:	0f 8c 6b ff ff ff    	jl     160c <main+0x323>
    16a1:	48 8b 85 20 80 ff ff 	mov    rax,QWORD PTR [rbp-0x7fe0]
    16a8:	89 85 d4 7f ff ff    	mov    DWORD PTR [rbp-0x802c],eax
    16ae:	83 ad bc 7f ff ff 01 	sub    DWORD PTR [rbp-0x8044],0x1
    16b5:	c7 85 c4 7f ff ff 00 	mov    DWORD PTR [rbp-0x803c],0x0
    16bc:	00 00 00 
    16bf:	eb 46                	jmp    1707 <main+0x41e>
    16c1:	8b 85 c4 7f ff ff    	mov    eax,DWORD PTR [rbp-0x803c]
    16c7:	48 98                	cdqe
    16c9:	48 83 c0 01          	add    rax,0x1
    16cd:	48 8d 14 c5 00 00 00 	lea    rdx,[rax*8+0x0]
    16d4:	00 
    16d5:	48 8b 85 b0 7f ff ff 	mov    rax,QWORD PTR [rbp-0x8050]
    16dc:	48 01 d0             	add    rax,rdx
    16df:	8b 95 c4 7f ff ff    	mov    edx,DWORD PTR [rbp-0x803c]
    16e5:	48 63 d2             	movsxd rdx,edx
    16e8:	48 8d 0c d5 00 00 00 	lea    rcx,[rdx*8+0x0]
    16ef:	00 
    16f0:	48 8b 95 b0 7f ff ff 	mov    rdx,QWORD PTR [rbp-0x8050]
    16f7:	48 01 ca             	add    rdx,rcx
    16fa:	48 8b 00             	mov    rax,QWORD PTR [rax]
    16fd:	48 89 02             	mov    QWORD PTR [rdx],rax
    1700:	83 85 c4 7f ff ff 01 	add    DWORD PTR [rbp-0x803c],0x1
    1707:	8b 85 c4 7f ff ff    	mov    eax,DWORD PTR [rbp-0x803c]
    170d:	3b 85 bc 7f ff ff    	cmp    eax,DWORD PTR [rbp-0x8044]
    1713:	7c ac                	jl     16c1 <main+0x3d8>
    1715:	48 8b 05 04 29 00 00 	mov    rax,QWORD PTR [rip+0x2904]        # 4020 <stderr@GLIBC_2.2.5>
    171c:	8b 95 d4 7f ff ff    	mov    edx,DWORD PTR [rbp-0x802c]
    1722:	48 8d 35 27 09 00 00 	lea    rsi,[rip+0x927]        # 2050 <_IO_stdin_used+0x50>
    1729:	48 89 c7             	mov    rdi,rax
    172c:	b8 00 00 00 00       	mov    eax,0x0
    1731:	e8 4a fa ff ff       	call   1180 <fprintf@plt>
    1736:	83 bd d4 7f ff ff 32 	cmp    DWORD PTR [rbp-0x802c],0x32
    173d:	7e 24                	jle    1763 <main+0x47a>
    173f:	8b 85 d4 7f ff ff    	mov    eax,DWORD PTR [rbp-0x802c]
    1745:	8d 50 ce             	lea    edx,[rax-0x32]
    1748:	48 8b 05 d1 28 00 00 	mov    rax,QWORD PTR [rip+0x28d1]        # 4020 <stderr@GLIBC_2.2.5>
    174f:	48 8d 35 22 09 00 00 	lea    rsi,[rip+0x922]        # 2078 <_IO_stdin_used+0x78>
    1756:	48 89 c7             	mov    rdi,rax
    1759:	b8 00 00 00 00       	mov    eax,0x0
    175e:	e8 1d fa ff ff       	call   1180 <fprintf@plt>
    1763:	83 bd cc 7f ff ff 00 	cmp    DWORD PTR [rbp-0x8034],0x0
    176a:	7e 21                	jle    178d <main+0x4a4>
    176c:	48 8b 05 ad 28 00 00 	mov    rax,QWORD PTR [rip+0x28ad]        # 4020 <stderr@GLIBC_2.2.5>
    1773:	8b 95 cc 7f ff ff    	mov    edx,DWORD PTR [rbp-0x8034]
    1779:	48 8d 35 20 09 00 00 	lea    rsi,[rip+0x920]        # 20a0 <_IO_stdin_used+0xa0>
    1780:	48 89 c7             	mov    rdi,rax
    1783:	b8 00 00 00 00       	mov    eax,0x0
    1788:	e8 f3 f9 ff ff       	call   1180 <fprintf@plt>
    178d:	83 bd c8 7f ff ff 00 	cmp    DWORD PTR [rbp-0x8038],0x0
    1794:	7e 21                	jle    17b7 <main+0x4ce>
    1796:	48 8b 05 83 28 00 00 	mov    rax,QWORD PTR [rip+0x2883]        # 4020 <stderr@GLIBC_2.2.5>
    179d:	8b 95 c8 7f ff ff    	mov    edx,DWORD PTR [rbp-0x8038]
    17a3:	48 8d 35 1e 09 00 00 	lea    rsi,[rip+0x91e]        # 20c8 <_IO_stdin_used+0xc8>
    17aa:	48 89 c7             	mov    rdi,rax
    17ad:	b8 00 00 00 00       	mov    eax,0x0
    17b2:	e8 c9 f9 ff ff       	call   1180 <fprintf@plt>
    17b7:	48 8b 05 62 28 00 00 	mov    rax,QWORD PTR [rip+0x2862]        # 4020 <stderr@GLIBC_2.2.5>
    17be:	48 89 c1             	mov    rcx,rax
    17c1:	ba 1a 00 00 00       	mov    edx,0x1a
    17c6:	be 01 00 00 00       	mov    esi,0x1
    17cb:	48 8d 3d 17 09 00 00 	lea    rdi,[rip+0x917]        # 20e9 <_IO_stdin_used+0xe9>
    17d2:	e8 19 fa ff ff       	call   11f0 <fwrite@plt>
    17d7:	48 8b 85 e0 7f ff ff 	mov    rax,QWORD PTR [rbp-0x8020]
    17de:	ff d0                	call   rax
    17e0:	b8 01 00 00 00       	mov    eax,0x1
    17e5:	48 8b 4d f8          	mov    rcx,QWORD PTR [rbp-0x8]
    17e9:	64 48 33 0c 25 28 00 	xor    rcx,QWORD PTR fs:0x28
    17f0:	00 00 
    17f2:	74 05                	je     17f9 <main+0x510>
    17f4:	e8 37 f9 ff ff       	call   1130 <__stack_chk_fail@plt>
    17f9:	c9                   	leave
    17fa:	c3                   	ret
    17fb:	0f 1f 44 00 00       	nop    DWORD PTR [rax+rax*1+0x0]

0000000000001800 <__libc_csu_init>:
    1800:	f3 0f 1e fa          	endbr64
    1804:	41 57                	push   r15
    1806:	4c 8d 3d 43 25 00 00 	lea    r15,[rip+0x2543]        # 3d50 <__frame_dummy_init_array_entry>
    180d:	41 56                	push   r14
    180f:	49 89 d6             	mov    r14,rdx
    1812:	41 55                	push   r13
    1814:	49 89 f5             	mov    r13,rsi
    1817:	41 54                	push   r12
    1819:	41 89 fc             	mov    r12d,edi
    181c:	55                   	push   rbp
    181d:	48 8d 2d 34 25 00 00 	lea    rbp,[rip+0x2534]        # 3d58 <__do_global_dtors_aux_fini_array_entry>
    1824:	53                   	push   rbx
    1825:	4c 29 fd             	sub    rbp,r15
    1828:	48 83 ec 08          	sub    rsp,0x8
    182c:	e8 cf f7 ff ff       	call   1000 <_init>
    1831:	48 c1 fd 03          	sar    rbp,0x3
    1835:	74 1f                	je     1856 <__libc_csu_init+0x56>
    1837:	31 db                	xor    ebx,ebx
    1839:	0f 1f 80 00 00 00 00 	nop    DWORD PTR [rax+0x0]
    1840:	4c 89 f2             	mov    rdx,r14
    1843:	4c 89 ee             	mov    rsi,r13
    1846:	44 89 e7             	mov    edi,r12d
    1849:	41 ff 14 df          	call   QWORD PTR [r15+rbx*8]
    184d:	48 83 c3 01          	add    rbx,0x1
    1851:	48 39 dd             	cmp    rbp,rbx
    1854:	75 ea                	jne    1840 <__libc_csu_init+0x40>
    1856:	48 83 c4 08          	add    rsp,0x8
    185a:	5b                   	pop    rbx
    185b:	5d                   	pop    rbp
    185c:	41 5c                	pop    r12
    185e:	41 5d                	pop    r13
    1860:	41 5e                	pop    r14
    1862:	41 5f                	pop    r15
    1864:	c3                   	ret
    1865:	66 66 2e 0f 1f 84 00 	data16 cs nop WORD PTR [rax+rax*1+0x0]
    186c:	00 00 00 00 

0000000000001870 <__libc_csu_fini>:
    1870:	f3 0f 1e fa          	endbr64
    1874:	c3                   	ret
    1875:	66 2e 0f 1f 84 00 00 	cs nop WORD PTR [rax+rax*1+0x0]
    187c:	00 00 00 
    187f:	90                   	nop

0000000000001880 <__fstat>:
    1880:	f3 0f 1e fa          	endbr64
    1884:	48 89 f2             	mov    rdx,rsi
    1887:	89 fe                	mov    esi,edi
    1889:	bf 01 00 00 00       	mov    edi,0x1
    188e:	e9 1d f9 ff ff       	jmp    11b0 <__fxstat@plt>

Disassembly of section .fini:

0000000000001894 <_fini>:
    1894:	f3 0f 1e fa          	endbr64
    1898:	48 83 ec 08          	sub    rsp,0x8
    189c:	48 83 c4 08          	add    rsp,0x8
    18a0:	c3                   	ret
