
hello:     file format elf64-x86-64


Disassembly of section .init:

0000000000401000 <_init>:
  401000:	f3 0f 1e fa          	endbr64 
  401004:	48 83 ec 08          	sub    rsp,0x8
  401008:	48 8b 05 e9 2f 00 00 	mov    rax,QWORD PTR [rip+0x2fe9]        # 403ff8 <__gmon_start__>
  40100f:	48 85 c0             	test   rax,rax
  401012:	74 02                	je     401016 <_init+0x16>
  401014:	ff d0                	call   rax
  401016:	48 83 c4 08          	add    rsp,0x8
  40101a:	c3                   	ret    

Disassembly of section .plt:

0000000000401020 <.plt>:
  401020:	ff 35 e2 2f 00 00    	push   QWORD PTR [rip+0x2fe2]        # 404008 <_GLOBAL_OFFSET_TABLE_+0x8>
  401026:	ff 25 e4 2f 00 00    	jmp    QWORD PTR [rip+0x2fe4]        # 404010 <_GLOBAL_OFFSET_TABLE_+0x10>
  40102c:	0f 1f 40 00          	nop    DWORD PTR [rax+0x0]

0000000000401030 <puts@plt>:
  401030:	ff 25 e2 2f 00 00    	jmp    QWORD PTR [rip+0x2fe2]        # 404018 <puts@GLIBC_2.2.5>
  401036:	68 00 00 00 00       	push   0x0
  40103b:	e9 e0 ff ff ff       	jmp    401020 <.plt>

0000000000401040 <gets@plt>:
  401040:	ff 25 da 2f 00 00    	jmp    QWORD PTR [rip+0x2fda]        # 404020 <gets@GLIBC_2.2.5>
  401046:	68 01 00 00 00       	push   0x1
  40104b:	e9 d0 ff ff ff       	jmp    401020 <.plt>

0000000000401050 <exit@plt>:
  401050:	ff 25 d2 2f 00 00    	jmp    QWORD PTR [rip+0x2fd2]        # 404028 <exit@GLIBC_2.2.5>
  401056:	68 02 00 00 00       	push   0x2
  40105b:	e9 c0 ff ff ff       	jmp    401020 <.plt>

Disassembly of section .text:

0000000000401060 <_start>:
  401060:	f3 0f 1e fa          	endbr64 
  401064:	31 ed                	xor    ebp,ebp
  401066:	49 89 d1             	mov    r9,rdx
  401069:	5e                   	pop    rsi
  40106a:	48 89 e2             	mov    rdx,rsp
  40106d:	48 83 e4 f0          	and    rsp,0xfffffffffffffff0
  401071:	50                   	push   rax
  401072:	54                   	push   rsp
  401073:	49 c7 c0 10 12 40 00 	mov    r8,0x401210
  40107a:	48 c7 c1 a0 11 40 00 	mov    rcx,0x4011a0
  401081:	48 c7 c7 7f 11 40 00 	mov    rdi,0x40117f
  401088:	ff 15 62 2f 00 00    	call   QWORD PTR [rip+0x2f62]        # 403ff0 <__libc_start_main@GLIBC_2.2.5>
  40108e:	f4                   	hlt    
  40108f:	90                   	nop

0000000000401090 <_dl_relocate_static_pie>:
  401090:	f3 0f 1e fa          	endbr64 
  401094:	c3                   	ret    
  401095:	66 2e 0f 1f 84 00 00 	nop    WORD PTR cs:[rax+rax*1+0x0]
  40109c:	00 00 00 
  40109f:	90                   	nop

00000000004010a0 <deregister_tm_clones>:
  4010a0:	b8 40 40 40 00       	mov    eax,0x404040
  4010a5:	48 3d 40 40 40 00    	cmp    rax,0x404040
  4010ab:	74 13                	je     4010c0 <deregister_tm_clones+0x20>
  4010ad:	b8 00 00 00 00       	mov    eax,0x0
  4010b2:	48 85 c0             	test   rax,rax
  4010b5:	74 09                	je     4010c0 <deregister_tm_clones+0x20>
  4010b7:	bf 40 40 40 00       	mov    edi,0x404040
  4010bc:	ff e0                	jmp    rax
  4010be:	66 90                	xchg   ax,ax
  4010c0:	c3                   	ret    
  4010c1:	66 66 2e 0f 1f 84 00 	data16 nop WORD PTR cs:[rax+rax*1+0x0]
  4010c8:	00 00 00 00 
  4010cc:	0f 1f 40 00          	nop    DWORD PTR [rax+0x0]

00000000004010d0 <register_tm_clones>:
  4010d0:	be 40 40 40 00       	mov    esi,0x404040
  4010d5:	48 81 ee 40 40 40 00 	sub    rsi,0x404040
  4010dc:	48 89 f0             	mov    rax,rsi
  4010df:	48 c1 ee 3f          	shr    rsi,0x3f
  4010e3:	48 c1 f8 03          	sar    rax,0x3
  4010e7:	48 01 c6             	add    rsi,rax
  4010ea:	48 d1 fe             	sar    rsi,1
  4010ed:	74 11                	je     401100 <register_tm_clones+0x30>
  4010ef:	b8 00 00 00 00       	mov    eax,0x0
  4010f4:	48 85 c0             	test   rax,rax
  4010f7:	74 07                	je     401100 <register_tm_clones+0x30>
  4010f9:	bf 40 40 40 00       	mov    edi,0x404040
  4010fe:	ff e0                	jmp    rax
  401100:	c3                   	ret    
  401101:	66 66 2e 0f 1f 84 00 	data16 nop WORD PTR cs:[rax+rax*1+0x0]
  401108:	00 00 00 00 
  40110c:	0f 1f 40 00          	nop    DWORD PTR [rax+0x0]

0000000000401110 <__do_global_dtors_aux>:
  401110:	f3 0f 1e fa          	endbr64 
  401114:	80 3d 25 2f 00 00 00 	cmp    BYTE PTR [rip+0x2f25],0x0        # 404040 <__TMC_END__>
  40111b:	75 13                	jne    401130 <__do_global_dtors_aux+0x20>
  40111d:	55                   	push   rbp
  40111e:	48 89 e5             	mov    rbp,rsp
  401121:	e8 7a ff ff ff       	call   4010a0 <deregister_tm_clones>
  401126:	c6 05 13 2f 00 00 01 	mov    BYTE PTR [rip+0x2f13],0x1        # 404040 <__TMC_END__>
  40112d:	5d                   	pop    rbp
  40112e:	c3                   	ret    
  40112f:	90                   	nop
  401130:	c3                   	ret    
  401131:	66 66 2e 0f 1f 84 00 	data16 nop WORD PTR cs:[rax+rax*1+0x0]
  401138:	00 00 00 00 
  40113c:	0f 1f 40 00          	nop    DWORD PTR [rax+0x0]

0000000000401140 <frame_dummy>:
  401140:	f3 0f 1e fa          	endbr64 
  401144:	eb 8a                	jmp    4010d0 <register_tm_clones>

0000000000401146 <hello>:
  401146:	55                   	push   rbp
  401147:	48 89 e5             	mov    rbp,rsp
  40114a:	bf 08 20 40 00       	mov    edi,0x402008
  40114f:	e8 dc fe ff ff       	call   401030 <puts@plt>
  401154:	bf 00 00 00 00       	mov    edi,0x0
  401159:	e8 f2 fe ff ff       	call   401050 <exit@plt>

000000000040115e <pwn_me>:
  40115e:	55                   	push   rbp
  40115f:	48 89 e5             	mov    rbp,rsp
  401162:	48 83 ec 10          	sub    rsp,0x10
  401166:	bf 31 20 40 00       	mov    edi,0x402031
  40116b:	e8 c0 fe ff ff       	call   401030 <puts@plt>
  401170:	48 8d 45 f4          	lea    rax,[rbp-0xc]
  401174:	48 89 c7             	mov    rdi,rax
  401177:	e8 c4 fe ff ff       	call   401040 <gets@plt>
  40117c:	90                   	nop
  40117d:	c9                   	leave  
  40117e:	c3                   	ret    

000000000040117f <main>:
  40117f:	55                   	push   rbp
  401180:	48 89 e5             	mov    rbp,rsp
  401183:	b8 00 00 00 00       	mov    eax,0x0
  401188:	e8 d1 ff ff ff       	call   40115e <pwn_me>
  40118d:	bf 4b 20 40 00       	mov    edi,0x40204b
  401192:	e8 99 fe ff ff       	call   401030 <puts@plt>
  401197:	b8 00 00 00 00       	mov    eax,0x0
  40119c:	5d                   	pop    rbp
  40119d:	c3                   	ret    
  40119e:	66 90                	xchg   ax,ax

00000000004011a0 <__libc_csu_init>:
  4011a0:	f3 0f 1e fa          	endbr64 
  4011a4:	41 57                	push   r15
  4011a6:	4c 8d 3d 63 2c 00 00 	lea    r15,[rip+0x2c63]        # 403e10 <__frame_dummy_init_array_entry>
  4011ad:	41 56                	push   r14
  4011af:	49 89 d6             	mov    r14,rdx
  4011b2:	41 55                	push   r13
  4011b4:	49 89 f5             	mov    r13,rsi
  4011b7:	41 54                	push   r12
  4011b9:	41 89 fc             	mov    r12d,edi
  4011bc:	55                   	push   rbp
  4011bd:	48 8d 2d 54 2c 00 00 	lea    rbp,[rip+0x2c54]        # 403e18 <__do_global_dtors_aux_fini_array_entry>
  4011c4:	53                   	push   rbx
  4011c5:	4c 29 fd             	sub    rbp,r15
  4011c8:	48 83 ec 08          	sub    rsp,0x8
  4011cc:	e8 2f fe ff ff       	call   401000 <_init>
  4011d1:	48 c1 fd 03          	sar    rbp,0x3
  4011d5:	74 1f                	je     4011f6 <__libc_csu_init+0x56>
  4011d7:	31 db                	xor    ebx,ebx
  4011d9:	0f 1f 80 00 00 00 00 	nop    DWORD PTR [rax+0x0]
  4011e0:	4c 89 f2             	mov    rdx,r14
  4011e3:	4c 89 ee             	mov    rsi,r13
  4011e6:	44 89 e7             	mov    edi,r12d
  4011e9:	41 ff 14 df          	call   QWORD PTR [r15+rbx*8]
  4011ed:	48 83 c3 01          	add    rbx,0x1
  4011f1:	48 39 dd             	cmp    rbp,rbx
  4011f4:	75 ea                	jne    4011e0 <__libc_csu_init+0x40>
  4011f6:	48 83 c4 08          	add    rsp,0x8
  4011fa:	5b                   	pop    rbx
  4011fb:	5d                   	pop    rbp
  4011fc:	41 5c                	pop    r12
  4011fe:	41 5d                	pop    r13
  401200:	41 5e                	pop    r14
  401202:	41 5f                	pop    r15
  401204:	c3                   	ret    
  401205:	66 66 2e 0f 1f 84 00 	data16 nop WORD PTR cs:[rax+rax*1+0x0]
  40120c:	00 00 00 00 

0000000000401210 <__libc_csu_fini>:
  401210:	f3 0f 1e fa          	endbr64 
  401214:	c3                   	ret    

Disassembly of section .fini:

0000000000401218 <_fini>:
  401218:	f3 0f 1e fa          	endbr64 
  40121c:	48 83 ec 08          	sub    rsp,0x8
  401220:	48 83 c4 08          	add    rsp,0x8
  401224:	c3                   	ret    
