
gotless:     file format elf64-x86-64


Disassembly of section .init:

0000000000401000 <_init>:
  401000:	f3 0f 1e fa          	endbr64
  401004:	48 83 ec 08          	sub    rsp,0x8
  401008:	48 8b 05 e9 2f 00 00 	mov    rax,QWORD PTR [rip+0x2fe9]        # 403ff8 <__gmon_start__>
  40100f:	48 85 c0             	test   rax,rax
  401012:	74 02                	je     401016 <_init+0x16>
  401014:	ff d0                	call   rax
  401016:	48 83 c4 08          	add    rsp,0x8
  40101a:	c3                   	ret

Disassembly of section .text:

0000000000401020 <_start>:
  401020:	f3 0f 1e fa          	endbr64
  401024:	31 ed                	xor    ebp,ebp
  401026:	49 89 d1             	mov    r9,rdx
  401029:	5e                   	pop    rsi
  40102a:	48 89 e2             	mov    rdx,rsp
  40102d:	48 83 e4 f0          	and    rsp,0xfffffffffffffff0
  401031:	50                   	push   rax
  401032:	54                   	push   rsp
  401033:	49 c7 c0 80 12 40 00 	mov    r8,0x401280
  40103a:	48 c7 c1 10 12 40 00 	mov    rcx,0x401210
  401041:	48 c7 c7 00 12 40 00 	mov    rdi,0x401200
  401048:	ff 15 a2 2f 00 00    	call   QWORD PTR [rip+0x2fa2]        # 403ff0 <__libc_start_main@GLIBC_2.2.5>
  40104e:	f4                   	hlt
  40104f:	90                   	nop

0000000000401050 <_dl_relocate_static_pie>:
  401050:	f3 0f 1e fa          	endbr64
  401054:	c3                   	ret
  401055:	66 2e 0f 1f 84 00 00 	cs nop WORD PTR [rax+rax*1+0x0]
  40105c:	00 00 00 
  40105f:	90                   	nop

0000000000401060 <deregister_tm_clones>:
  401060:	b8 a8 40 40 00       	mov    eax,0x4040a8
  401065:	48 3d a8 40 40 00    	cmp    rax,0x4040a8
  40106b:	74 13                	je     401080 <deregister_tm_clones+0x20>
  40106d:	b8 00 00 00 00       	mov    eax,0x0
  401072:	48 85 c0             	test   rax,rax
  401075:	74 09                	je     401080 <deregister_tm_clones+0x20>
  401077:	bf a8 40 40 00       	mov    edi,0x4040a8
  40107c:	ff e0                	jmp    rax
  40107e:	66 90                	xchg   ax,ax
  401080:	c3                   	ret
  401081:	66 66 2e 0f 1f 84 00 	data16 cs nop WORD PTR [rax+rax*1+0x0]
  401088:	00 00 00 00 
  40108c:	0f 1f 40 00          	nop    DWORD PTR [rax+0x0]

0000000000401090 <register_tm_clones>:
  401090:	be a8 40 40 00       	mov    esi,0x4040a8
  401095:	48 81 ee a8 40 40 00 	sub    rsi,0x4040a8
  40109c:	48 89 f0             	mov    rax,rsi
  40109f:	48 c1 ee 3f          	shr    rsi,0x3f
  4010a3:	48 c1 f8 03          	sar    rax,0x3
  4010a7:	48 01 c6             	add    rsi,rax
  4010aa:	48 d1 fe             	sar    rsi,1
  4010ad:	74 11                	je     4010c0 <register_tm_clones+0x30>
  4010af:	b8 00 00 00 00       	mov    eax,0x0
  4010b4:	48 85 c0             	test   rax,rax
  4010b7:	74 07                	je     4010c0 <register_tm_clones+0x30>
  4010b9:	bf a8 40 40 00       	mov    edi,0x4040a8
  4010be:	ff e0                	jmp    rax
  4010c0:	c3                   	ret
  4010c1:	66 66 2e 0f 1f 84 00 	data16 cs nop WORD PTR [rax+rax*1+0x0]
  4010c8:	00 00 00 00 
  4010cc:	0f 1f 40 00          	nop    DWORD PTR [rax+0x0]

00000000004010d0 <__do_global_dtors_aux>:
  4010d0:	f3 0f 1e fa          	endbr64
  4010d4:	80 3d cc 2f 00 00 00 	cmp    BYTE PTR [rip+0x2fcc],0x0        # 4040a7 <completed.8061>
  4010db:	75 13                	jne    4010f0 <__do_global_dtors_aux+0x20>
  4010dd:	55                   	push   rbp
  4010de:	48 89 e5             	mov    rbp,rsp
  4010e1:	e8 7a ff ff ff       	call   401060 <deregister_tm_clones>
  4010e6:	c6 05 ba 2f 00 00 01 	mov    BYTE PTR [rip+0x2fba],0x1        # 4040a7 <completed.8061>
  4010ed:	5d                   	pop    rbp
  4010ee:	c3                   	ret
  4010ef:	90                   	nop
  4010f0:	c3                   	ret
  4010f1:	66 66 2e 0f 1f 84 00 	data16 cs nop WORD PTR [rax+rax*1+0x0]
  4010f8:	00 00 00 00 
  4010fc:	0f 1f 40 00          	nop    DWORD PTR [rax+0x0]

0000000000401100 <frame_dummy>:
  401100:	f3 0f 1e fa          	endbr64
  401104:	eb 8a                	jmp    401090 <register_tm_clones>

0000000000401106 <advance>:
  401106:	f3 0f 1e fa          	endbr64
  40110a:	48 01 37             	add    QWORD PTR [rdi],rsi
  40110d:	c3                   	ret

000000000040110e <magic>:
  40110e:	f3 0f 1e fa          	endbr64
  401112:	b8 48 83 ec 40       	mov    eax,0x40ec8348
  401117:	c3                   	ret

0000000000401118 <fib>:
  401118:	f3 0f 1e fa          	endbr64
  40111c:	48 c7 44 24 c0 00 00 	mov    QWORD PTR [rsp-0x40],0x0
  401123:	00 00 
  401125:	48 c7 44 24 c8 01 00 	mov    QWORD PTR [rsp-0x38],0x1
  40112c:	00 00 
  40112e:	48 8d 44 24 c0       	lea    rax,[rsp-0x40]
  401133:	48 8d 4c 24 f0       	lea    rcx,[rsp-0x10]
  401138:	48 8b 50 08          	mov    rdx,QWORD PTR [rax+0x8]
  40113c:	48 03 10             	add    rdx,QWORD PTR [rax]
  40113f:	48 89 50 10          	mov    QWORD PTR [rax+0x10],rdx
  401143:	48 83 c0 08          	add    rax,0x8
  401147:	48 39 c8             	cmp    rax,rcx
  40114a:	75 ec                	jne    401138 <fib+0x20>
  40114c:	48 8b 44 fc c0       	mov    rax,QWORD PTR [rsp+rdi*8-0x40]
  401151:	c3                   	ret

0000000000401152 <hash>:
  ; foo hash(char *s) {
  ;   char buf[256];
  ;   int res;
  ;   int c = (int) *s;
  ;   if (c == '\0') {
  ;     res = magic() & *buf;
  ;   }
  ;   else {
  ;
  ;   }
  ; }
  401152:	f3 0f 1e fa          	endbr64
  401156:	41 55                	push   r13
  401158:	41 54                	push   r12
  40115a:	55                   	push   rbp
  40115b:	53                   	push   rbx

  ; char buf[256];
  ; int c = (int) s[0];
  ; if (c == '\0')
  ;   ...
  40115c:	48 81 ec 00 01 00 00 	sub    rsp,0x100
  401163:	0f b6 07             	movzx  eax,BYTE PTR [rdi]
  401166:	84 c0                	test   al,al
  401168:	74 7a                	je     4011e4 <hash+0x92>


  ; int i = 0;
  ; while (s[2 * i] != '\0') {
  ;   int tmp = (int) s[2*i + 1];
  ;   buf[i] = (tmp << 4) | (c & 0xf);
  ;   i++;
  ; } while (*(s + 2 * i) != '\0');
  40116a:	bb 00 00 00 00       	mov    ebx,0x0
  40116f:	0f be 54 5f 01       	movsx  edx,BYTE PTR [rdi+rbx*2+0x1]
  401174:	c1 e2 04             	shl    edx,0x4
  401177:	83 e0 0f             	and    eax,0xf
  40117a:	09 d0                	or     eax,edx
  40117c:	88 04 1c             	mov    BYTE PTR [rsp+rbx*1],al
  40117f:	48 83 c3 01          	add    rbx,0x1
  401183:	0f b6 04 5f          	movzx  eax,BYTE PTR [rdi+rbx*2]
  401187:	84 c0                	test   al,al
  401189:	75 e4                	jne    40116f <hash+0x1d>

  40118b:	e8 7e ff ff ff       	call   40110e <magic>
  401190:	23 04 24             	and    eax,DWORD PTR [rsp]
  401193:	41 89 c5             	mov    r13d,eax
  401196:	48 85 db             	test   rbx,rbx
  401199:	74 33                	je     4011ce <hash+0x7c>
  40119b:	49 89 e4             	mov    r12,rsp
  40119e:	4c 01 e3             	add    rbx,r12
  4011a1:	41 0f b6 2c 24       	movzx  ebp,BYTE PTR [r12]
  4011a6:	48 89 ef             	mov    rdi,rbp
  4011a9:	83 e7 07             	and    edi,0x7
  4011ac:	e8 67 ff ff ff       	call   401118 <fib>
  4011b1:	48 89 c2             	mov    rdx,rax
  4011b4:	83 e5 3f             	and    ebp,0x3f
  4011b7:	48 0f be 85 40 40 40 	movsx  rax,BYTE PTR [rbp+0x404040]
  4011be:	00 
  4011bf:	48 09 d0             	or     rax,rdx
  4011c2:	41 31 c5             	xor    r13d,eax
  4011c5:	49 83 c4 01          	add    r12,0x1
  4011c9:	4c 39 e3             	cmp    rbx,r12
  4011cc:	75 d3                	jne    4011a1 <hash+0x4f>

  4011ce:	44 89 e8             	mov    eax,r13d
  4011d1:	0d 48 ab c3 cc       	or     eax,0xccc3ab48
  4011d6:	48 81 c4 00 01 00 00 	add    rsp,0x100
  4011dd:	5b                   	pop    rbx
  4011de:	5d                   	pop    rbp
  4011df:	41 5c                	pop    r12
  4011e1:	41 5d                	pop    r13
  4011e3:	c3                   	ret

  4011e4:	b8 00 00 00 00       	mov    eax,0x0
  4011e9:	e8 20 ff ff ff       	call   40110e <magic>
  4011ee:	23 04 24             	and    eax,DWORD PTR [rsp]
  4011f1:	41 89 c5             	mov    r13d,eax
  4011f4:	eb d8                	jmp    4011ce <hash+0x7c>

00000000004011f6 <hash_wrapper>:
  4011f6:	f3 0f 1e fa          	endbr64
  4011fa:	e8 53 ff ff ff       	call   401152 <hash>
  4011ff:	c3                   	ret

0000000000401200 <main>:
  401200:	f3 0f 1e fa          	endbr64
  401204:	48 8b 7e 08          	mov    rdi,QWORD PTR [rsi+0x8]
  401208:	e8 e9 ff ff ff       	call   4011f6 <hash_wrapper>
  40120d:	c3                   	ret
  40120e:	66 90                	xchg   ax,ax

0000000000401210 <__libc_csu_init>:
  401210:	f3 0f 1e fa          	endbr64
  401214:	41 57                	push   r15
  401216:	4c 8d 3d 33 2c 00 00 	lea    r15,[rip+0x2c33]        # 403e50 <__frame_dummy_init_array_entry>
  40121d:	41 56                	push   r14
  40121f:	49 89 d6             	mov    r14,rdx
  401222:	41 55                	push   r13
  401224:	49 89 f5             	mov    r13,rsi
  401227:	41 54                	push   r12
  401229:	41 89 fc             	mov    r12d,edi
  40122c:	55                   	push   rbp
  40122d:	48 8d 2d 24 2c 00 00 	lea    rbp,[rip+0x2c24]        # 403e58 <__do_global_dtors_aux_fini_array_entry>
  401234:	53                   	push   rbx
  401235:	4c 29 fd             	sub    rbp,r15
  401238:	48 83 ec 08          	sub    rsp,0x8
  40123c:	e8 bf fd ff ff       	call   401000 <_init>
  401241:	48 c1 fd 03          	sar    rbp,0x3
  401245:	74 1f                	je     401266 <__libc_csu_init+0x56>
  401247:	31 db                	xor    ebx,ebx
  401249:	0f 1f 80 00 00 00 00 	nop    DWORD PTR [rax+0x0]
  401250:	4c 89 f2             	mov    rdx,r14
  401253:	4c 89 ee             	mov    rsi,r13
  401256:	44 89 e7             	mov    edi,r12d
  401259:	41 ff 14 df          	call   QWORD PTR [r15+rbx*8]
  40125d:	48 83 c3 01          	add    rbx,0x1
  401261:	48 39 dd             	cmp    rbp,rbx
  401264:	75 ea                	jne    401250 <__libc_csu_init+0x40>
  401266:	48 83 c4 08          	add    rsp,0x8
  40126a:	5b                   	pop    rbx
  40126b:	5d                   	pop    rbp
  40126c:	41 5c                	pop    r12
  40126e:	41 5d                	pop    r13
  401270:	41 5e                	pop    r14
  401272:	41 5f                	pop    r15
  401274:	c3                   	ret
  401275:	66 66 2e 0f 1f 84 00 	data16 cs nop WORD PTR [rax+rax*1+0x0]
  40127c:	00 00 00 00 

0000000000401280 <__libc_csu_fini>:
  401280:	f3 0f 1e fa          	endbr64
  401284:	c3                   	ret

Disassembly of section .fini:

0000000000401288 <_fini>:
  401288:	f3 0f 1e fa          	endbr64
  40128c:	48 83 ec 08          	sub    rsp,0x8
  401290:	48 83 c4 08          	add    rsp,0x8
  401294:	c3                   	ret
