
new_absalon:     file format elf64-x86-64


Disassembly of section .init:

0000000000001000 <_init>:
    1000:	f3 0f 1e fa          	endbr64
    1004:	48 83 ec 08          	sub    rsp,0x8
    1008:	48 8b 05 d9 2f 00 00 	mov    rax,QWORD PTR [rip+0x2fd9]        # 3fe8 <__gmon_start__>
    100f:	48 85 c0             	test   rax,rax
    1012:	74 02                	je     1016 <_init+0x16>
    1014:	ff d0                	call   rax
    1016:	48 83 c4 08          	add    rsp,0x8
    101a:	c3                   	ret

Disassembly of section .plt:

0000000000001020 <.plt>:
    1020:	ff 35 1a 2f 00 00    	push   QWORD PTR [rip+0x2f1a]        # 3f40 <_GLOBAL_OFFSET_TABLE_+0x8>
    1026:	f2 ff 25 1b 2f 00 00 	bnd jmp QWORD PTR [rip+0x2f1b]        # 3f48 <_GLOBAL_OFFSET_TABLE_+0x10>
    102d:	0f 1f 00             	nop    DWORD PTR [rax]
    1030:	f3 0f 1e fa          	endbr64
    1034:	68 00 00 00 00       	push   0x0
    1039:	f2 e9 e1 ff ff ff    	bnd jmp 1020 <.plt>
    103f:	90                   	nop
    1040:	f3 0f 1e fa          	endbr64
    1044:	68 01 00 00 00       	push   0x1
    1049:	f2 e9 d1 ff ff ff    	bnd jmp 1020 <.plt>
    104f:	90                   	nop
    1050:	f3 0f 1e fa          	endbr64
    1054:	68 02 00 00 00       	push   0x2
    1059:	f2 e9 c1 ff ff ff    	bnd jmp 1020 <.plt>
    105f:	90                   	nop
    1060:	f3 0f 1e fa          	endbr64
    1064:	68 03 00 00 00       	push   0x3
    1069:	f2 e9 b1 ff ff ff    	bnd jmp 1020 <.plt>
    106f:	90                   	nop
    1070:	f3 0f 1e fa          	endbr64
    1074:	68 04 00 00 00       	push   0x4
    1079:	f2 e9 a1 ff ff ff    	bnd jmp 1020 <.plt>
    107f:	90                   	nop
    1080:	f3 0f 1e fa          	endbr64
    1084:	68 05 00 00 00       	push   0x5
    1089:	f2 e9 91 ff ff ff    	bnd jmp 1020 <.plt>
    108f:	90                   	nop
    1090:	f3 0f 1e fa          	endbr64
    1094:	68 06 00 00 00       	push   0x6
    1099:	f2 e9 81 ff ff ff    	bnd jmp 1020 <.plt>
    109f:	90                   	nop
    10a0:	f3 0f 1e fa          	endbr64
    10a4:	68 07 00 00 00       	push   0x7
    10a9:	f2 e9 71 ff ff ff    	bnd jmp 1020 <.plt>
    10af:	90                   	nop
    10b0:	f3 0f 1e fa          	endbr64
    10b4:	68 08 00 00 00       	push   0x8
    10b9:	f2 e9 61 ff ff ff    	bnd jmp 1020 <.plt>
    10bf:	90                   	nop
    10c0:	f3 0f 1e fa          	endbr64
    10c4:	68 09 00 00 00       	push   0x9
    10c9:	f2 e9 51 ff ff ff    	bnd jmp 1020 <.plt>
    10cf:	90                   	nop
    10d0:	f3 0f 1e fa          	endbr64
    10d4:	68 0a 00 00 00       	push   0xa
    10d9:	f2 e9 41 ff ff ff    	bnd jmp 1020 <.plt>
    10df:	90                   	nop
    10e0:	f3 0f 1e fa          	endbr64
    10e4:	68 0b 00 00 00       	push   0xb
    10e9:	f2 e9 31 ff ff ff    	bnd jmp 1020 <.plt>
    10ef:	90                   	nop
    10f0:	f3 0f 1e fa          	endbr64
    10f4:	68 0c 00 00 00       	push   0xc
    10f9:	f2 e9 21 ff ff ff    	bnd jmp 1020 <.plt>
    10ff:	90                   	nop
    1100:	f3 0f 1e fa          	endbr64
    1104:	68 0d 00 00 00       	push   0xd
    1109:	f2 e9 11 ff ff ff    	bnd jmp 1020 <.plt>
    110f:	90                   	nop
    1110:	f3 0f 1e fa          	endbr64
    1114:	68 0e 00 00 00       	push   0xe
    1119:	f2 e9 01 ff ff ff    	bnd jmp 1020 <.plt>
    111f:	90                   	nop
    1120:	f3 0f 1e fa          	endbr64
    1124:	68 0f 00 00 00       	push   0xf
    1129:	f2 e9 f1 fe ff ff    	bnd jmp 1020 <.plt>
    112f:	90                   	nop
    1130:	f3 0f 1e fa          	endbr64
    1134:	68 10 00 00 00       	push   0x10
    1139:	f2 e9 e1 fe ff ff    	bnd jmp 1020 <.plt>
    113f:	90                   	nop

Disassembly of section .plt.got:

0000000000001140 <__cxa_finalize@plt>:
    1140:	f3 0f 1e fa          	endbr64
    1144:	f2 ff 25 ad 2e 00 00 	bnd jmp QWORD PTR [rip+0x2ead]        # 3ff8 <__cxa_finalize@GLIBC_2.2.5>
    114b:	0f 1f 44 00 00       	nop    DWORD PTR [rax+rax*1+0x0]

Disassembly of section .plt.sec:

0000000000001150 <free@plt>:
    1150:	f3 0f 1e fa          	endbr64
    1154:	f2 ff 25 f5 2d 00 00 	bnd jmp QWORD PTR [rip+0x2df5]        # 3f50 <free@GLIBC_2.2.5>
    115b:	0f 1f 44 00 00       	nop    DWORD PTR [rax+rax*1+0x0]

0000000000001160 <toupper@plt>:
    1160:	f3 0f 1e fa          	endbr64
    1164:	f2 ff 25 ed 2d 00 00 	bnd jmp QWORD PTR [rip+0x2ded]        # 3f58 <toupper@GLIBC_2.2.5>
    116b:	0f 1f 44 00 00       	nop    DWORD PTR [rax+rax*1+0x0]

0000000000001170 <puts@plt>:
    1170:	f3 0f 1e fa          	endbr64
    1174:	f2 ff 25 e5 2d 00 00 	bnd jmp QWORD PTR [rip+0x2de5]        # 3f60 <puts@GLIBC_2.2.5>
    117b:	0f 1f 44 00 00       	nop    DWORD PTR [rax+rax*1+0x0]

0000000000001180 <__stack_chk_fail@plt>:
    1180:	f3 0f 1e fa          	endbr64
    1184:	f2 ff 25 dd 2d 00 00 	bnd jmp QWORD PTR [rip+0x2ddd]        # 3f68 <__stack_chk_fail@GLIBC_2.4>
    118b:	0f 1f 44 00 00       	nop    DWORD PTR [rax+rax*1+0x0]

0000000000001190 <printf@plt>:
    1190:	f3 0f 1e fa          	endbr64
    1194:	f2 ff 25 d5 2d 00 00 	bnd jmp QWORD PTR [rip+0x2dd5]        # 3f70 <printf@GLIBC_2.2.5>
    119b:	0f 1f 44 00 00       	nop    DWORD PTR [rax+rax*1+0x0]

00000000000011a0 <fgetc@plt>:
    11a0:	f3 0f 1e fa          	endbr64
    11a4:	f2 ff 25 cd 2d 00 00 	bnd jmp QWORD PTR [rip+0x2dcd]        # 3f78 <fgetc@GLIBC_2.2.5>
    11ab:	0f 1f 44 00 00       	nop    DWORD PTR [rax+rax*1+0x0]

00000000000011b0 <read@plt>:
    11b0:	f3 0f 1e fa          	endbr64
    11b4:	f2 ff 25 c5 2d 00 00 	bnd jmp QWORD PTR [rip+0x2dc5]        # 3f80 <read@GLIBC_2.2.5>
    11bb:	0f 1f 44 00 00       	nop    DWORD PTR [rax+rax*1+0x0]

00000000000011c0 <fgets@plt>:
    11c0:	f3 0f 1e fa          	endbr64
    11c4:	f2 ff 25 bd 2d 00 00 	bnd jmp QWORD PTR [rip+0x2dbd]        # 3f88 <fgets@GLIBC_2.2.5>
    11cb:	0f 1f 44 00 00       	nop    DWORD PTR [rax+rax*1+0x0]

00000000000011d0 <getchar@plt>:
    11d0:	f3 0f 1e fa          	endbr64
    11d4:	f2 ff 25 b5 2d 00 00 	bnd jmp QWORD PTR [rip+0x2db5]        # 3f90 <getchar@GLIBC_2.2.5>
    11db:	0f 1f 44 00 00       	nop    DWORD PTR [rax+rax*1+0x0]

00000000000011e0 <malloc@plt>:
    11e0:	f3 0f 1e fa          	endbr64
    11e4:	f2 ff 25 ad 2d 00 00 	bnd jmp QWORD PTR [rip+0x2dad]        # 3f98 <malloc@GLIBC_2.2.5>
    11eb:	0f 1f 44 00 00       	nop    DWORD PTR [rax+rax*1+0x0]

00000000000011f0 <fflush@plt>:
    11f0:	f3 0f 1e fa          	endbr64
    11f4:	f2 ff 25 a5 2d 00 00 	bnd jmp QWORD PTR [rip+0x2da5]        # 3fa0 <fflush@GLIBC_2.2.5>
    11fb:	0f 1f 44 00 00       	nop    DWORD PTR [rax+rax*1+0x0]

0000000000001200 <realloc@plt>:
    1200:	f3 0f 1e fa          	endbr64
    1204:	f2 ff 25 9d 2d 00 00 	bnd jmp QWORD PTR [rip+0x2d9d]        # 3fa8 <realloc@GLIBC_2.2.5>
    120b:	0f 1f 44 00 00       	nop    DWORD PTR [rax+rax*1+0x0]

0000000000001210 <setvbuf@plt>:
    1210:	f3 0f 1e fa          	endbr64
    1214:	f2 ff 25 95 2d 00 00 	bnd jmp QWORD PTR [rip+0x2d95]        # 3fb0 <setvbuf@GLIBC_2.2.5>
    121b:	0f 1f 44 00 00       	nop    DWORD PTR [rax+rax*1+0x0]

0000000000001220 <fopen@plt>:
    1220:	f3 0f 1e fa          	endbr64
    1224:	f2 ff 25 8d 2d 00 00 	bnd jmp QWORD PTR [rip+0x2d8d]        # 3fb8 <fopen@GLIBC_2.2.5>
    122b:	0f 1f 44 00 00       	nop    DWORD PTR [rax+rax*1+0x0]

0000000000001230 <perror@plt>:
    1230:	f3 0f 1e fa          	endbr64
    1234:	f2 ff 25 85 2d 00 00 	bnd jmp QWORD PTR [rip+0x2d85]        # 3fc0 <perror@GLIBC_2.2.5>
    123b:	0f 1f 44 00 00       	nop    DWORD PTR [rax+rax*1+0x0]

0000000000001240 <__isoc99_scanf@plt>:
    1240:	f3 0f 1e fa          	endbr64
    1244:	f2 ff 25 7d 2d 00 00 	bnd jmp QWORD PTR [rip+0x2d7d]        # 3fc8 <__isoc99_scanf@GLIBC_2.7>
    124b:	0f 1f 44 00 00       	nop    DWORD PTR [rax+rax*1+0x0]

0000000000001250 <exit@plt>:
    1250:	f3 0f 1e fa          	endbr64
    1254:	f2 ff 25 75 2d 00 00 	bnd jmp QWORD PTR [rip+0x2d75]        # 3fd0 <exit@GLIBC_2.2.5>
    125b:	0f 1f 44 00 00       	nop    DWORD PTR [rax+rax*1+0x0]

Disassembly of section .text:

0000000000001260 <_start>:
    1260:	f3 0f 1e fa          	endbr64
    1264:	31 ed                	xor    ebp,ebp
    1266:	49 89 d1             	mov    r9,rdx
    1269:	5e                   	pop    rsi
    126a:	48 89 e2             	mov    rdx,rsp
    126d:	48 83 e4 f0          	and    rsp,0xfffffffffffffff0
    1271:	50                   	push   rax
    1272:	54                   	push   rsp
    1273:	4c 8d 05 f6 06 00 00 	lea    r8,[rip+0x6f6]        # 1970 <__libc_csu_fini>
    127a:	48 8d 0d 7f 06 00 00 	lea    rcx,[rip+0x67f]        # 1900 <__libc_csu_init>
    1281:	48 8d 3d 2b 06 00 00 	lea    rdi,[rip+0x62b]        # 18b3 <main>
    1288:	ff 15 52 2d 00 00    	call   QWORD PTR [rip+0x2d52]        # 3fe0 <__libc_start_main@GLIBC_2.2.5>
    128e:	f4                   	hlt
    128f:	90                   	nop

0000000000001290 <deregister_tm_clones>:
    1290:	48 8d 3d 79 2d 00 00 	lea    rdi,[rip+0x2d79]        # 4010 <__TMC_END__>
    1297:	48 8d 05 72 2d 00 00 	lea    rax,[rip+0x2d72]        # 4010 <__TMC_END__>
    129e:	48 39 f8             	cmp    rax,rdi
    12a1:	74 15                	je     12b8 <deregister_tm_clones+0x28>
    12a3:	48 8b 05 2e 2d 00 00 	mov    rax,QWORD PTR [rip+0x2d2e]        # 3fd8 <_ITM_deregisterTMCloneTable>
    12aa:	48 85 c0             	test   rax,rax
    12ad:	74 09                	je     12b8 <deregister_tm_clones+0x28>
    12af:	ff e0                	jmp    rax
    12b1:	0f 1f 80 00 00 00 00 	nop    DWORD PTR [rax+0x0]
    12b8:	c3                   	ret
    12b9:	0f 1f 80 00 00 00 00 	nop    DWORD PTR [rax+0x0]

00000000000012c0 <register_tm_clones>:
    12c0:	48 8d 3d 49 2d 00 00 	lea    rdi,[rip+0x2d49]        # 4010 <__TMC_END__>
    12c7:	48 8d 35 42 2d 00 00 	lea    rsi,[rip+0x2d42]        # 4010 <__TMC_END__>
    12ce:	48 29 fe             	sub    rsi,rdi
    12d1:	48 89 f0             	mov    rax,rsi
    12d4:	48 c1 ee 3f          	shr    rsi,0x3f
    12d8:	48 c1 f8 03          	sar    rax,0x3
    12dc:	48 01 c6             	add    rsi,rax
    12df:	48 d1 fe             	sar    rsi,1
    12e2:	74 14                	je     12f8 <register_tm_clones+0x38>
    12e4:	48 8b 05 05 2d 00 00 	mov    rax,QWORD PTR [rip+0x2d05]        # 3ff0 <_ITM_registerTMCloneTable>
    12eb:	48 85 c0             	test   rax,rax
    12ee:	74 08                	je     12f8 <register_tm_clones+0x38>
    12f0:	ff e0                	jmp    rax
    12f2:	66 0f 1f 44 00 00    	nop    WORD PTR [rax+rax*1+0x0]
    12f8:	c3                   	ret
    12f9:	0f 1f 80 00 00 00 00 	nop    DWORD PTR [rax+0x0]

0000000000001300 <__do_global_dtors_aux>:
    1300:	f3 0f 1e fa          	endbr64
    1304:	80 3d 3d 2d 00 00 00 	cmp    BYTE PTR [rip+0x2d3d],0x0        # 4048 <completed.8061>
    130b:	75 2b                	jne    1338 <__do_global_dtors_aux+0x38>
    130d:	55                   	push   rbp
    130e:	48 83 3d e2 2c 00 00 	cmp    QWORD PTR [rip+0x2ce2],0x0        # 3ff8 <__cxa_finalize@GLIBC_2.2.5>
    1315:	00 
    1316:	48 89 e5             	mov    rbp,rsp
    1319:	74 0c                	je     1327 <__do_global_dtors_aux+0x27>
    131b:	48 8b 3d e6 2c 00 00 	mov    rdi,QWORD PTR [rip+0x2ce6]        # 4008 <__dso_handle>
    1322:	e8 19 fe ff ff       	call   1140 <__cxa_finalize@plt>
    1327:	e8 64 ff ff ff       	call   1290 <deregister_tm_clones>
    132c:	c6 05 15 2d 00 00 01 	mov    BYTE PTR [rip+0x2d15],0x1        # 4048 <completed.8061>
    1333:	5d                   	pop    rbp
    1334:	c3                   	ret
    1335:	0f 1f 00             	nop    DWORD PTR [rax]
    1338:	c3                   	ret
    1339:	0f 1f 80 00 00 00 00 	nop    DWORD PTR [rax+0x0]

0000000000001340 <frame_dummy>:
    1340:	f3 0f 1e fa          	endbr64
    1344:	e9 77 ff ff ff       	jmp    12c0 <register_tm_clones>

0000000000001349 <winner_function>:
    1349:	f3 0f 1e fa          	endbr64
    134d:	55                   	push   rbp
    134e:	48 89 e5             	mov    rbp,rsp
    1351:	48 83 ec 60          	sub    rsp,0x60
    1355:	64 48 8b 04 25 28 00 	mov    rax,QWORD PTR fs:0x28
    135c:	00 00 
    135e:	48 89 45 f8          	mov    QWORD PTR [rbp-0x8],rax
    1362:	31 c0                	xor    eax,eax
    1364:	48 8d 35 9d 0c 00 00 	lea    rsi,[rip+0xc9d]        # 2008 <_IO_stdin_used+0x8>
    136b:	48 8d 3d 98 0c 00 00 	lea    rdi,[rip+0xc98]        # 200a <_IO_stdin_used+0xa>
    1372:	e8 a9 fe ff ff       	call   1220 <fopen@plt>
    1377:	48 89 45 a8          	mov    QWORD PTR [rbp-0x58],rax
    137b:	48 83 7d a8 00       	cmp    QWORD PTR [rbp-0x58],0x0
    1380:	75 1b                	jne    139d <winner_function+0x54>
    1382:	48 8d 3d 8f 0c 00 00 	lea    rdi,[rip+0xc8f]        # 2018 <_IO_stdin_used+0x18>
    1389:	b8 00 00 00 00       	mov    eax,0x0
    138e:	e8 fd fd ff ff       	call   1190 <printf@plt>
    1393:	bf 00 00 00 00       	mov    edi,0x0
    1398:	e8 b3 fe ff ff       	call   1250 <exit@plt>
    139d:	48 8b 55 a8          	mov    rdx,QWORD PTR [rbp-0x58]
    13a1:	48 8d 45 b0          	lea    rax,[rbp-0x50]
    13a5:	be 40 00 00 00       	mov    esi,0x40
    13aa:	48 89 c7             	mov    rdi,rax
    13ad:	e8 0e fe ff ff       	call   11c0 <fgets@plt>
    13b2:	48 85 c0             	test   rax,rax
    13b5:	75 16                	jne    13cd <winner_function+0x84>
    13b7:	48 8d 3d a4 0c 00 00 	lea    rdi,[rip+0xca4]        # 2062 <_IO_stdin_used+0x62>
    13be:	e8 6d fe ff ff       	call   1230 <perror@plt>
    13c3:	bf 01 00 00 00       	mov    edi,0x1
    13c8:	e8 83 fe ff ff       	call   1250 <exit@plt>
    13cd:	48 8d 45 b0          	lea    rax,[rbp-0x50]
    13d1:	48 89 c7             	mov    rdi,rax
    13d4:	e8 97 fd ff ff       	call   1170 <puts@plt>
    13d9:	48 8b 05 40 2c 00 00 	mov    rax,QWORD PTR [rip+0x2c40]        # 4020 <stdout@GLIBC_2.2.5>
    13e0:	48 89 c7             	mov    rdi,rax
    13e3:	e8 08 fe ff ff       	call   11f0 <fflush@plt>
    13e8:	bf 00 00 00 00       	mov    edi,0x0
    13ed:	e8 5e fe ff ff       	call   1250 <exit@plt>

00000000000013f2 <slurp>:
    13f2:	f3 0f 1e fa          	endbr64
    13f6:	55                   	push   rbp
    13f7:	48 89 e5             	mov    rbp,rsp
    13fa:	48 83 ec 30          	sub    rsp,0x30
    13fe:	e8 cd fd ff ff       	call   11d0 <getchar@plt>
    1403:	bf 62 00 00 00       	mov    edi,0x62
    1408:	e8 d3 fd ff ff       	call   11e0 <malloc@plt>
    140d:	48 89 45 d8          	mov    QWORD PTR [rbp-0x28],rax
    1411:	48 8b 45 d8          	mov    rax,QWORD PTR [rbp-0x28]
    1415:	48 89 45 e0          	mov    QWORD PTR [rbp-0x20],rax
    1419:	48 c7 45 e8 62 00 00 	mov    QWORD PTR [rbp-0x18],0x62
    1420:	00 
    1421:	48 8b 45 e8          	mov    rax,QWORD PTR [rbp-0x18]
    1425:	48 89 45 f0          	mov    QWORD PTR [rbp-0x10],rax
    1429:	48 83 7d d8 00       	cmp    QWORD PTR [rbp-0x28],0x0
    142e:	75 0a                	jne    143a <slurp+0x48>
    1430:	b8 00 00 00 00       	mov    eax,0x0
    1435:	e9 af 00 00 00       	jmp    14e9 <slurp+0xf7>
    143a:	48 8b 05 ef 2b 00 00 	mov    rax,QWORD PTR [rip+0x2bef]        # 4030 <stdin@GLIBC_2.2.5>
    1441:	48 89 c7             	mov    rdi,rax
    1444:	e8 57 fd ff ff       	call   11a0 <fgetc@plt>
    1449:	89 45 d4             	mov    DWORD PTR [rbp-0x2c],eax
    144c:	83 7d d4 ff          	cmp    DWORD PTR [rbp-0x2c],0xffffffff
    1450:	0f 84 84 00 00 00    	je     14da <slurp+0xe8>
    1456:	48 83 6d f0 01       	sub    QWORD PTR [rbp-0x10],0x1
    145b:	48 83 7d f0 00       	cmp    QWORD PTR [rbp-0x10],0x0
    1460:	75 5b                	jne    14bd <slurp+0xcb>
    1462:	48 8b 45 e8          	mov    rax,QWORD PTR [rbp-0x18]
    1466:	48 89 45 f0          	mov    QWORD PTR [rbp-0x10],rax
    146a:	48 d1 65 e8          	shl    QWORD PTR [rbp-0x18],1
    146e:	48 8b 55 e8          	mov    rdx,QWORD PTR [rbp-0x18]
    1472:	48 8b 45 e0          	mov    rax,QWORD PTR [rbp-0x20]
    1476:	48 89 d6             	mov    rsi,rdx
    1479:	48 89 c7             	mov    rdi,rax
    147c:	e8 7f fd ff ff       	call   1200 <realloc@plt>
    1481:	48 89 45 f8          	mov    QWORD PTR [rbp-0x8],rax
    1485:	48 83 7d f8 00       	cmp    QWORD PTR [rbp-0x8],0x0
    148a:	75 13                	jne    149f <slurp+0xad>
    148c:	48 8b 45 e0          	mov    rax,QWORD PTR [rbp-0x20]
    1490:	48 89 c7             	mov    rdi,rax
    1493:	e8 b8 fc ff ff       	call   1150 <free@plt>
    1498:	b8 00 00 00 00       	mov    eax,0x0
    149d:	eb 4a                	jmp    14e9 <slurp+0xf7>
    149f:	48 8b 45 d8          	mov    rax,QWORD PTR [rbp-0x28]
    14a3:	48 2b 45 e0          	sub    rax,QWORD PTR [rbp-0x20]
    14a7:	48 89 c2             	mov    rdx,rax
    14aa:	48 8b 45 f8          	mov    rax,QWORD PTR [rbp-0x8]
    14ae:	48 01 d0             	add    rax,rdx
    14b1:	48 89 45 d8          	mov    QWORD PTR [rbp-0x28],rax
    14b5:	48 8b 45 f8          	mov    rax,QWORD PTR [rbp-0x8]
    14b9:	48 89 45 e0          	mov    QWORD PTR [rbp-0x20],rax
    14bd:	48 8b 45 d8          	mov    rax,QWORD PTR [rbp-0x28]
    14c1:	48 8d 50 01          	lea    rdx,[rax+0x1]
    14c5:	48 89 55 d8          	mov    QWORD PTR [rbp-0x28],rdx
    14c9:	8b 55 d4             	mov    edx,DWORD PTR [rbp-0x2c]
    14cc:	88 10                	mov    BYTE PTR [rax],dl
    14ce:	0f b6 00             	movzx  eax,BYTE PTR [rax]
    14d1:	3c 0a                	cmp    al,0xa
    14d3:	74 08                	je     14dd <slurp+0xeb>
    14d5:	e9 60 ff ff ff       	jmp    143a <slurp+0x48>
    14da:	90                   	nop
    14db:	eb 01                	jmp    14de <slurp+0xec>
    14dd:	90                   	nop
    14de:	48 8b 45 d8          	mov    rax,QWORD PTR [rbp-0x28]
    14e2:	c6 00 00             	mov    BYTE PTR [rax],0x0
    14e5:	48 8b 45 e0          	mov    rax,QWORD PTR [rbp-0x20]
    14e9:	c9                   	leave
    14ea:	c3                   	ret

00000000000014eb <doAction>:
    14eb:	f3 0f 1e fa          	endbr64
    14ef:	55                   	push   rbp
    14f0:	48 89 e5             	mov    rbp,rsp
    14f3:	48 83 ec 10          	sub    rsp,0x10
    14f7:	48 89 7d f8          	mov    QWORD PTR [rbp-0x8],rdi
    14fb:	48 8b 45 f8          	mov    rax,QWORD PTR [rbp-0x8]
    14ff:	48 8b 10             	mov    rdx,QWORD PTR [rax]
    1502:	b8 00 00 00 00       	mov    eax,0x0
    1507:	ff d2                	call   rdx
    1509:	90                   	nop
    150a:	c9                   	leave
    150b:	c3                   	ret

000000000000150c <s>:
    150c:	f3 0f 1e fa          	endbr64
    1510:	55                   	push   rbp
    1511:	48 89 e5             	mov    rbp,rsp
    1514:	48 8d 35 2e fe ff ff 	lea    rsi,[rip+0xfffffffffffffe2e]        # 1349 <winner_function>
    151b:	48 8d 3d 57 0b 00 00 	lea    rdi,[rip+0xb57]        # 2079 <_IO_stdin_used+0x79>
    1522:	b8 00 00 00 00       	mov    eax,0x0
    1527:	e8 64 fc ff ff       	call   1190 <printf@plt>
    152c:	48 8d 3d 65 0b 00 00 	lea    rdi,[rip+0xb65]        # 2098 <_IO_stdin_used+0x98>
    1533:	e8 38 fc ff ff       	call   1170 <puts@plt>
    1538:	90                   	nop
    1539:	5d                   	pop    rbp
    153a:	c3                   	ret

000000000000153b <p>:
    153b:	f3 0f 1e fa          	endbr64
    153f:	55                   	push   rbp
    1540:	48 89 e5             	mov    rbp,rsp
    1543:	48 8d 3d 9c 0b 00 00 	lea    rdi,[rip+0xb9c]        # 20e6 <_IO_stdin_used+0xe6>
    154a:	e8 21 fc ff ff       	call   1170 <puts@plt>
    154f:	90                   	nop
    1550:	5d                   	pop    rbp
    1551:	c3                   	ret

0000000000001552 <m>:
    1552:	f3 0f 1e fa          	endbr64
    1556:	55                   	push   rbp
    1557:	48 89 e5             	mov    rbp,rsp
    155a:	48 8d 3d 99 0b 00 00 	lea    rdi,[rip+0xb99]        # 20fa <_IO_stdin_used+0xfa>
    1561:	e8 0a fc ff ff       	call   1170 <puts@plt>
    1566:	90                   	nop
    1567:	5d                   	pop    rbp
    1568:	c3                   	ret

0000000000001569 <leaveMessage>:
    1569:	f3 0f 1e fa          	endbr64
    156d:	55                   	push   rbp
    156e:	48 89 e5             	mov    rbp,rsp
    1571:	48 83 ec 10          	sub    rsp,0x10
    1575:	48 8d 3d 94 0b 00 00 	lea    rdi,[rip+0xb94]        # 2110 <_IO_stdin_used+0x110>
    157c:	e8 ef fb ff ff       	call   1170 <puts@plt>
    1581:	bf 08 00 00 00       	mov    edi,0x8
    1586:	e8 55 fc ff ff       	call   11e0 <malloc@plt>
    158b:	48 89 45 f8          	mov    QWORD PTR [rbp-0x8],rax
    158f:	48 8b 45 f8          	mov    rax,QWORD PTR [rbp-0x8]
    1593:	ba 08 00 00 00       	mov    edx,0x8
    1598:	48 89 c6             	mov    rsi,rax
    159b:	bf 00 00 00 00       	mov    edi,0x0
    15a0:	e8 0b fc ff ff       	call   11b0 <read@plt>
    15a5:	48 85 c0             	test   rax,rax
    15a8:	7f 16                	jg     15c0 <leaveMessage+0x57>
    15aa:	48 8d 3d a5 0b 00 00 	lea    rdi,[rip+0xba5]        # 2156 <_IO_stdin_used+0x156>
    15b1:	e8 ba fb ff ff       	call   1170 <puts@plt>
    15b6:	bf 01 00 00 00       	mov    edi,0x1
    15bb:	e8 90 fc ff ff       	call   1250 <exit@plt>
    15c0:	90                   	nop
    15c1:	c9                   	leave
    15c2:	c3                   	ret

00000000000015c3 <i>:
    15c3:	f3 0f 1e fa          	endbr64
    15c7:	55                   	push   rbp
    15c8:	48 89 e5             	mov    rbp,rsp
    15cb:	48 83 ec 10          	sub    rsp,0x10
    15cf:	64 48 8b 04 25 28 00 	mov    rax,QWORD PTR fs:0x28
    15d6:	00 00 
    15d8:	48 89 45 f8          	mov    QWORD PTR [rbp-0x8],rax
    15dc:	31 c0                	xor    eax,eax
    15de:	48 8d 3d 8d 0b 00 00 	lea    rdi,[rip+0xb8d]        # 2172 <_IO_stdin_used+0x172>
    15e5:	e8 86 fb ff ff       	call   1170 <puts@plt>
    15ea:	48 8d 45 f7          	lea    rax,[rbp-0x9]
    15ee:	48 89 c6             	mov    rsi,rax
    15f1:	48 8d 3d 97 0b 00 00 	lea    rdi,[rip+0xb97]        # 218f <_IO_stdin_used+0x18f>
    15f8:	b8 00 00 00 00       	mov    eax,0x0
    15fd:	e8 3e fc ff ff       	call   1240 <__isoc99_scanf@plt>
    1602:	83 f8 01             	cmp    eax,0x1
    1605:	74 16                	je     161d <i+0x5a>
    1607:	48 8d 3d 85 0b 00 00 	lea    rdi,[rip+0xb85]        # 2193 <_IO_stdin_used+0x193>
    160e:	e8 5d fb ff ff       	call   1170 <puts@plt>
    1613:	bf 01 00 00 00       	mov    edi,0x1
    1618:	e8 33 fc ff ff       	call   1250 <exit@plt>
    161d:	0f b6 45 f7          	movzx  eax,BYTE PTR [rbp-0x9]
    1621:	0f be c0             	movsx  eax,al
    1624:	89 c7                	mov    edi,eax
    1626:	e8 35 fb ff ff       	call   1160 <toupper@plt>
    162b:	83 f8 59             	cmp    eax,0x59
    162e:	75 1d                	jne    164d <i+0x8a>
    1630:	48 8d 3d 73 0b 00 00 	lea    rdi,[rip+0xb73]        # 21aa <_IO_stdin_used+0x1aa>
    1637:	e8 34 fb ff ff       	call   1170 <puts@plt>
    163c:	48 8b 05 15 2a 00 00 	mov    rax,QWORD PTR [rip+0x2a15]        # 4058 <student>
    1643:	48 89 c7             	mov    rdi,rax
    1646:	e8 05 fb ff ff       	call   1150 <free@plt>
    164b:	eb 0c                	jmp    1659 <i+0x96>
    164d:	48 8d 3d 5c 0b 00 00 	lea    rdi,[rip+0xb5c]        # 21b0 <_IO_stdin_used+0x1b0>
    1654:	e8 17 fb ff ff       	call   1170 <puts@plt>
    1659:	90                   	nop
    165a:	48 8b 45 f8          	mov    rax,QWORD PTR [rbp-0x8]
    165e:	64 48 33 04 25 28 00 	xor    rax,QWORD PTR fs:0x28
    1665:	00 00 
    1667:	74 05                	je     166e <i+0xab>
    1669:	e8 12 fb ff ff       	call   1180 <__stack_chk_fail@plt>
    166e:	c9                   	leave
    166f:	c3                   	ret

0000000000001670 <printMenu>:
    1670:	f3 0f 1e fa          	endbr64
    1674:	55                   	push   rbp
    1675:	48 89 e5             	mov    rbp,rsp
    1678:	48 8d 3d 65 0b 00 00 	lea    rdi,[rip+0xb65]        # 21e4 <_IO_stdin_used+0x1e4>
    167f:	e8 ec fa ff ff       	call   1170 <puts@plt>
    1684:	48 8d 3d 5a 0b 00 00 	lea    rdi,[rip+0xb5a]        # 21e5 <_IO_stdin_used+0x1e5>
    168b:	e8 e0 fa ff ff       	call   1170 <puts@plt>
    1690:	48 8d 3d 65 0b 00 00 	lea    rdi,[rip+0xb65]        # 21fc <_IO_stdin_used+0x1fc>
    1697:	e8 d4 fa ff ff       	call   1170 <puts@plt>
    169c:	48 8d 3d 70 0b 00 00 	lea    rdi,[rip+0xb70]        # 2213 <_IO_stdin_used+0x213>
    16a3:	e8 c8 fa ff ff       	call   1170 <puts@plt>
    16a8:	48 8d 3d 7c 0b 00 00 	lea    rdi,[rip+0xb7c]        # 222b <_IO_stdin_used+0x22b>
    16af:	e8 bc fa ff ff       	call   1170 <puts@plt>
    16b4:	48 8d 3d 8b 0b 00 00 	lea    rdi,[rip+0xb8b]        # 2246 <_IO_stdin_used+0x246>
    16bb:	e8 b0 fa ff ff       	call   1170 <puts@plt>
    16c0:	48 8d 3d 99 0b 00 00 	lea    rdi,[rip+0xb99]        # 2260 <_IO_stdin_used+0x260>
    16c7:	e8 a4 fa ff ff       	call   1170 <puts@plt>
    16cc:	48 8d 3d a5 0b 00 00 	lea    rdi,[rip+0xba5]        # 2278 <_IO_stdin_used+0x278>
    16d3:	e8 98 fa ff ff       	call   1170 <puts@plt>
    16d8:	48 8d 3d c8 0b 00 00 	lea    rdi,[rip+0xbc8]        # 22a7 <_IO_stdin_used+0x2a7>
    16df:	e8 8c fa ff ff       	call   1170 <puts@plt>
    16e4:	90                   	nop
    16e5:	5d                   	pop    rbp
    16e6:	c3                   	ret

00000000000016e7 <processInput>:
    16e7:	f3 0f 1e fa          	endbr64
    16eb:	55                   	push   rbp
    16ec:	48 89 e5             	mov    rbp,rsp
    16ef:	53                   	push   rbx
    16f0:	48 83 ec 08          	sub    rsp,0x8
    16f4:	48 8d 35 55 29 00 00 	lea    rsi,[rip+0x2955]        # 4050 <choice>
    16fb:	48 8d 3d 8d 0a 00 00 	lea    rdi,[rip+0xa8d]        # 218f <_IO_stdin_used+0x18f>
    1702:	b8 00 00 00 00       	mov    eax,0x0
    1707:	e8 34 fb ff ff       	call   1240 <__isoc99_scanf@plt>
    170c:	83 f8 01             	cmp    eax,0x1
    170f:	74 16                	je     1727 <processInput+0x40>
    1711:	48 8d 3d 7b 0a 00 00 	lea    rdi,[rip+0xa7b]        # 2193 <_IO_stdin_used+0x193>
    1718:	e8 53 fa ff ff       	call   1170 <puts@plt>
    171d:	bf 01 00 00 00       	mov    edi,0x1
    1722:	e8 29 fb ff ff       	call   1250 <exit@plt>
    1727:	0f b6 05 22 29 00 00 	movzx  eax,BYTE PTR [rip+0x2922]        # 4050 <choice>
    172e:	0f be c0             	movsx  eax,al
    1731:	89 c7                	mov    edi,eax
    1733:	e8 28 fa ff ff       	call   1160 <toupper@plt>
    1738:	88 05 12 29 00 00    	mov    BYTE PTR [rip+0x2912],al        # 4050 <choice>
    173e:	0f b6 05 0b 29 00 00 	movzx  eax,BYTE PTR [rip+0x290b]        # 4050 <choice>
    1745:	0f be c0             	movsx  eax,al
    1748:	83 e8 45             	sub    eax,0x45
    174b:	83 f8 0e             	cmp    eax,0xe
    174e:	0f 87 dc 00 00 00    	ja     1830 <processInput+0x149>
    1754:	89 c0                	mov    eax,eax
    1756:	48 8d 14 85 00 00 00 	lea    rdx,[rax*4+0x0]
    175d:	00 
    175e:	48 8d 05 cb 0b 00 00 	lea    rax,[rip+0xbcb]        # 2330 <_IO_stdin_used+0x330>
    1765:	8b 04 02             	mov    eax,DWORD PTR [rdx+rax*1]
    1768:	48 98                	cdqe
    176a:	48 8d 15 bf 0b 00 00 	lea    rdx,[rip+0xbbf]        # 2330 <_IO_stdin_used+0x330>
    1771:	48 01 d0             	add    rax,rdx
    1774:	3e ff e0             	notrack jmp rax
    1777:	48 8b 05 da 28 00 00 	mov    rax,QWORD PTR [rip+0x28da]        # 4058 <student>
    177e:	48 85 c0             	test   rax,rax
    1781:	74 16                	je     1799 <processInput+0xb2>
    1783:	48 8b 05 ce 28 00 00 	mov    rax,QWORD PTR [rip+0x28ce]        # 4058 <student>
    178a:	48 8d 15 7b fd ff ff 	lea    rdx,[rip+0xfffffffffffffd7b]        # 150c <s>
    1791:	48 89 10             	mov    QWORD PTR [rax],rdx
    1794:	e9 ad 00 00 00       	jmp    1846 <processInput+0x15f>
    1799:	48 8d 3d 0e 0b 00 00 	lea    rdi,[rip+0xb0e]        # 22ae <_IO_stdin_used+0x2ae>
    17a0:	e8 cb f9 ff ff       	call   1170 <puts@plt>
    17a5:	e9 9c 00 00 00       	jmp    1846 <processInput+0x15f>
    17aa:	48 8b 05 a7 28 00 00 	mov    rax,QWORD PTR [rip+0x28a7]        # 4058 <student>
    17b1:	48 8d 15 0b fe ff ff 	lea    rdx,[rip+0xfffffffffffffe0b]        # 15c3 <i>
    17b8:	48 89 10             	mov    QWORD PTR [rax],rdx
    17bb:	e9 86 00 00 00       	jmp    1846 <processInput+0x15f>
    17c0:	48 8b 05 91 28 00 00 	mov    rax,QWORD PTR [rip+0x2891]        # 4058 <student>
    17c7:	48 8d 15 84 fd ff ff 	lea    rdx,[rip+0xfffffffffffffd84]        # 1552 <m>
    17ce:	48 89 10             	mov    QWORD PTR [rax],rdx
    17d1:	48 8d 3d e8 0a 00 00 	lea    rdi,[rip+0xae8]        # 22c0 <_IO_stdin_used+0x2c0>
    17d8:	e8 93 f9 ff ff       	call   1170 <puts@plt>
    17dd:	48 8d 3d 04 0b 00 00 	lea    rdi,[rip+0xb04]        # 22e8 <_IO_stdin_used+0x2e8>
    17e4:	e8 87 f9 ff ff       	call   1170 <puts@plt>
    17e9:	48 8d 3d 1d 0b 00 00 	lea    rdi,[rip+0xb1d]        # 230d <_IO_stdin_used+0x30d>
    17f0:	e8 7b f9 ff ff       	call   1170 <puts@plt>
    17f5:	48 8b 1d 5c 28 00 00 	mov    rbx,QWORD PTR [rip+0x285c]        # 4058 <student>
    17fc:	e8 f1 fb ff ff       	call   13f2 <slurp>
    1801:	48 89 43 08          	mov    QWORD PTR [rbx+0x8],rax
    1805:	eb 3f                	jmp    1846 <processInput+0x15f>
    1807:	48 8b 05 4a 28 00 00 	mov    rax,QWORD PTR [rip+0x284a]        # 4058 <student>
    180e:	48 8d 15 26 fd ff ff 	lea    rdx,[rip+0xfffffffffffffd26]        # 153b <p>
    1815:	48 89 10             	mov    QWORD PTR [rax],rdx
    1818:	eb 2c                	jmp    1846 <processInput+0x15f>
    181a:	b8 00 00 00 00       	mov    eax,0x0
    181f:	e8 45 fd ff ff       	call   1569 <leaveMessage>
    1824:	eb 20                	jmp    1846 <processInput+0x15f>
    1826:	bf 00 00 00 00       	mov    edi,0x0
    182b:	e8 20 fa ff ff       	call   1250 <exit@plt>
    1830:	48 8d 3d e9 0a 00 00 	lea    rdi,[rip+0xae9]        # 2320 <_IO_stdin_used+0x320>
    1837:	e8 34 f9 ff ff       	call   1170 <puts@plt>
    183c:	bf 01 00 00 00       	mov    edi,0x1
    1841:	e8 0a fa ff ff       	call   1250 <exit@plt>
    1846:	90                   	nop
    1847:	48 83 c4 08          	add    rsp,0x8
    184b:	5b                   	pop    rbx
    184c:	5d                   	pop    rbp
    184d:	c3                   	ret

000000000000184e <setup>:
    184e:	f3 0f 1e fa          	endbr64
    1852:	55                   	push   rbp
    1853:	48 89 e5             	mov    rbp,rsp
    1856:	48 8b 05 d3 27 00 00 	mov    rax,QWORD PTR [rip+0x27d3]        # 4030 <stdin@GLIBC_2.2.5>
    185d:	b9 00 00 00 00       	mov    ecx,0x0
    1862:	ba 01 00 00 00       	mov    edx,0x1
    1867:	be 00 00 00 00       	mov    esi,0x0
    186c:	48 89 c7             	mov    rdi,rax
    186f:	e8 9c f9 ff ff       	call   1210 <setvbuf@plt>
    1874:	48 8b 05 a5 27 00 00 	mov    rax,QWORD PTR [rip+0x27a5]        # 4020 <stdout@GLIBC_2.2.5>
    187b:	b9 00 00 00 00       	mov    ecx,0x0
    1880:	ba 01 00 00 00       	mov    edx,0x1
    1885:	be 00 00 00 00       	mov    esi,0x0
    188a:	48 89 c7             	mov    rdi,rax
    188d:	e8 7e f9 ff ff       	call   1210 <setvbuf@plt>
    1892:	48 8b 05 a7 27 00 00 	mov    rax,QWORD PTR [rip+0x27a7]        # 4040 <stderr@GLIBC_2.2.5>
    1899:	b9 00 00 00 00       	mov    ecx,0x0
    189e:	ba 01 00 00 00       	mov    edx,0x1
    18a3:	be 00 00 00 00       	mov    esi,0x0
    18a8:	48 89 c7             	mov    rdi,rax
    18ab:	e8 60 f9 ff ff       	call   1210 <setvbuf@plt>
    18b0:	90                   	nop
    18b1:	5d                   	pop    rbp
    18b2:	c3                   	ret

00000000000018b3 <main>:
    18b3:	f3 0f 1e fa          	endbr64
    18b7:	55                   	push   rbp
    18b8:	48 89 e5             	mov    rbp,rsp
    18bb:	b8 00 00 00 00       	mov    eax,0x0
    18c0:	e8 89 ff ff ff       	call   184e <setup>
    18c5:	bf 08 00 00 00       	mov    edi,0x8
    18ca:	e8 11 f9 ff ff       	call   11e0 <malloc@plt>
    ; B HER
    18cf:	48 89 05 82 27 00 00 	mov    QWORD PTR [rip+0x2782],rax        # 4058 <student>
    18d6:	b8 00 00 00 00       	mov    eax,0x0
    18db:	e8 90 fd ff ff       	call   1670 <printMenu>
    18e0:	b8 00 00 00 00       	mov    eax,0x0
    18e5:	e8 fd fd ff ff       	call   16e7 <processInput>
    18ea:	48 8b 05 67 27 00 00 	mov    rax,QWORD PTR [rip+0x2767]        # 4058 <student>
    18f1:	48 89 c7             	mov    rdi,rax
    18f4:	e8 f2 fb ff ff       	call   14eb <doAction>
    18f9:	eb db                	jmp    18d6 <main+0x23>
    18fb:	0f 1f 44 00 00       	nop    DWORD PTR [rax+rax*1+0x0]

0000000000001900 <__libc_csu_init>:
    1900:	f3 0f 1e fa          	endbr64
    1904:	41 57                	push   r15
    1906:	4c 8d 3d 2b 24 00 00 	lea    r15,[rip+0x242b]        # 3d38 <__frame_dummy_init_array_entry>
    190d:	41 56                	push   r14
    190f:	49 89 d6             	mov    r14,rdx
    1912:	41 55                	push   r13
    1914:	49 89 f5             	mov    r13,rsi
    1917:	41 54                	push   r12
    1919:	41 89 fc             	mov    r12d,edi
    191c:	55                   	push   rbp
    191d:	48 8d 2d 1c 24 00 00 	lea    rbp,[rip+0x241c]        # 3d40 <__do_global_dtors_aux_fini_array_entry>
    1924:	53                   	push   rbx
    1925:	4c 29 fd             	sub    rbp,r15
    1928:	48 83 ec 08          	sub    rsp,0x8
    192c:	e8 cf f6 ff ff       	call   1000 <_init>
    1931:	48 c1 fd 03          	sar    rbp,0x3
    1935:	74 1f                	je     1956 <__libc_csu_init+0x56>
    1937:	31 db                	xor    ebx,ebx
    1939:	0f 1f 80 00 00 00 00 	nop    DWORD PTR [rax+0x0]
    1940:	4c 89 f2             	mov    rdx,r14
    1943:	4c 89 ee             	mov    rsi,r13
    1946:	44 89 e7             	mov    edi,r12d
    1949:	41 ff 14 df          	call   QWORD PTR [r15+rbx*8]
    194d:	48 83 c3 01          	add    rbx,0x1
    1951:	48 39 dd             	cmp    rbp,rbx
    1954:	75 ea                	jne    1940 <__libc_csu_init+0x40>
    1956:	48 83 c4 08          	add    rsp,0x8
    195a:	5b                   	pop    rbx
    195b:	5d                   	pop    rbp
    195c:	41 5c                	pop    r12
    195e:	41 5d                	pop    r13
    1960:	41 5e                	pop    r14
    1962:	41 5f                	pop    r15
    1964:	c3                   	ret
    1965:	66 66 2e 0f 1f 84 00 	data16 cs nop WORD PTR [rax+rax*1+0x0]
    196c:	00 00 00 00 

0000000000001970 <__libc_csu_fini>:
    1970:	f3 0f 1e fa          	endbr64
    1974:	c3                   	ret

Disassembly of section .fini:

0000000000001978 <_fini>:
    1978:	f3 0f 1e fa          	endbr64
    197c:	48 83 ec 08          	sub    rsp,0x8
    1980:	48 83 c4 08          	add    rsp,0x8
    1984:	c3                   	ret
