
ex5:     file format elf64-x86-64


Disassembly of section .init:

0000000000401000 <_init>:
  401000:	f3 0f 1e fa          	endbr64
  401004:	48 83 ec 08          	sub    rsp,0x8
  401008:	48 8b 05 e9 2f 00 00 	mov    rax,QWORD PTR [rip+0x2fe9]        # 403ff8 <__gmon_start__>
  40100f:	48 85 c0             	test   rax,rax
  401012:	74 02                	je     401016 <_init+0x16>
  401014:	ff d0                	call   rax
  401016:	48 83 c4 08          	add    rsp,0x8
  40101a:	c3                   	ret

Disassembly of section .plt:

0000000000401020 <.plt>:
  401020:	ff 35 e2 2f 00 00    	push   QWORD PTR [rip+0x2fe2]        # 404008 <_GLOBAL_OFFSET_TABLE_+0x8>
  401026:	f2 ff 25 e3 2f 00 00 	bnd jmp QWORD PTR [rip+0x2fe3]        # 404010 <_GLOBAL_OFFSET_TABLE_+0x10>
  40102d:	0f 1f 00             	nop    DWORD PTR [rax]
  401030:	f3 0f 1e fa          	endbr64
  401034:	68 00 00 00 00       	push   0x0
  401039:	f2 e9 e1 ff ff ff    	bnd jmp 401020 <.plt>
  40103f:	90                   	nop
  401040:	f3 0f 1e fa          	endbr64
  401044:	68 01 00 00 00       	push   0x1
  401049:	f2 e9 d1 ff ff ff    	bnd jmp 401020 <.plt>
  40104f:	90                   	nop
  401050:	f3 0f 1e fa          	endbr64
  401054:	68 02 00 00 00       	push   0x2
  401059:	f2 e9 c1 ff ff ff    	bnd jmp 401020 <.plt>
  40105f:	90                   	nop

Disassembly of section .plt.sec:

0000000000401060 <strcpy@plt>:
  401060:	f3 0f 1e fa          	endbr64
  401064:	f2 ff 25 ad 2f 00 00 	bnd jmp QWORD PTR [rip+0x2fad]        # 404018 <strcpy@GLIBC_2.2.5>
  40106b:	0f 1f 44 00 00       	nop    DWORD PTR [rax+rax*1+0x0]

0000000000401070 <puts@plt>:
  401070:	f3 0f 1e fa          	endbr64
  401074:	f2 ff 25 a5 2f 00 00 	bnd jmp QWORD PTR [rip+0x2fa5]        # 404020 <puts@GLIBC_2.2.5>
  40107b:	0f 1f 44 00 00       	nop    DWORD PTR [rax+rax*1+0x0]

0000000000401080 <printf@plt>:
  401080:	f3 0f 1e fa          	endbr64
  401084:	f2 ff 25 9d 2f 00 00 	bnd jmp QWORD PTR [rip+0x2f9d]        # 404028 <printf@GLIBC_2.2.5>
  40108b:	0f 1f 44 00 00       	nop    DWORD PTR [rax+rax*1+0x0]

Disassembly of section .text:

0000000000401090 <_start>:
  401090:	f3 0f 1e fa          	endbr64
  401094:	31 ed                	xor    ebp,ebp
  401096:	49 89 d1             	mov    r9,rdx
  401099:	5e                   	pop    rsi
  40109a:	48 89 e2             	mov    rdx,rsp
  40109d:	48 83 e4 f0          	and    rsp,0xfffffffffffffff0
  4010a1:	50                   	push   rax
  4010a2:	54                   	push   rsp
  4010a3:	49 c7 c0 d0 12 40 00 	mov    r8,0x4012d0
  4010aa:	48 c7 c1 60 12 40 00 	mov    rcx,0x401260
  4010b1:	48 c7 c7 07 12 40 00 	mov    rdi,0x401207
  4010b8:	ff 15 32 2f 00 00    	call   QWORD PTR [rip+0x2f32]        # 403ff0 <__libc_start_main@GLIBC_2.2.5>
  4010be:	f4                   	hlt
  4010bf:	90                   	nop

00000000004010c0 <_dl_relocate_static_pie>:
  4010c0:	f3 0f 1e fa          	endbr64
  4010c4:	c3                   	ret
  4010c5:	66 2e 0f 1f 84 00 00 	cs nop WORD PTR [rax+rax*1+0x0]
  4010cc:	00 00 00 
  4010cf:	90                   	nop

00000000004010d0 <deregister_tm_clones>:
  4010d0:	b8 40 40 40 00       	mov    eax,0x404040
  4010d5:	48 3d 40 40 40 00    	cmp    rax,0x404040
  4010db:	74 13                	je     4010f0 <deregister_tm_clones+0x20>
  4010dd:	b8 00 00 00 00       	mov    eax,0x0
  4010e2:	48 85 c0             	test   rax,rax
  4010e5:	74 09                	je     4010f0 <deregister_tm_clones+0x20>
  4010e7:	bf 40 40 40 00       	mov    edi,0x404040
  4010ec:	ff e0                	jmp    rax
  4010ee:	66 90                	xchg   ax,ax
  4010f0:	c3                   	ret
  4010f1:	66 66 2e 0f 1f 84 00 	data16 cs nop WORD PTR [rax+rax*1+0x0]
  4010f8:	00 00 00 00 
  4010fc:	0f 1f 40 00          	nop    DWORD PTR [rax+0x0]

0000000000401100 <register_tm_clones>:
  401100:	be 40 40 40 00       	mov    esi,0x404040
  401105:	48 81 ee 40 40 40 00 	sub    rsi,0x404040
  40110c:	48 89 f0             	mov    rax,rsi
  40110f:	48 c1 ee 3f          	shr    rsi,0x3f
  401113:	48 c1 f8 03          	sar    rax,0x3
  401117:	48 01 c6             	add    rsi,rax
  40111a:	48 d1 fe             	sar    rsi,1
  40111d:	74 11                	je     401130 <register_tm_clones+0x30>
  40111f:	b8 00 00 00 00       	mov    eax,0x0
  401124:	48 85 c0             	test   rax,rax
  401127:	74 07                	je     401130 <register_tm_clones+0x30>
  401129:	bf 40 40 40 00       	mov    edi,0x404040
  40112e:	ff e0                	jmp    rax
  401130:	c3                   	ret
  401131:	66 66 2e 0f 1f 84 00 	data16 cs nop WORD PTR [rax+rax*1+0x0]
  401138:	00 00 00 00 
  40113c:	0f 1f 40 00          	nop    DWORD PTR [rax+0x0]

0000000000401140 <__do_global_dtors_aux>:
  401140:	f3 0f 1e fa          	endbr64
  401144:	80 3d f5 2e 00 00 00 	cmp    BYTE PTR [rip+0x2ef5],0x0        # 404040 <__TMC_END__>
  40114b:	75 13                	jne    401160 <__do_global_dtors_aux+0x20>
  40114d:	55                   	push   rbp
  40114e:	48 89 e5             	mov    rbp,rsp
  401151:	e8 7a ff ff ff       	call   4010d0 <deregister_tm_clones>
  401156:	c6 05 e3 2e 00 00 01 	mov    BYTE PTR [rip+0x2ee3],0x1        # 404040 <__TMC_END__>
  40115d:	5d                   	pop    rbp
  40115e:	c3                   	ret
  40115f:	90                   	nop
  401160:	c3                   	ret
  401161:	66 66 2e 0f 1f 84 00 	data16 cs nop WORD PTR [rax+rax*1+0x0]
  401168:	00 00 00 00 
  40116c:	0f 1f 40 00          	nop    DWORD PTR [rax+0x0]

0000000000401170 <frame_dummy>:
  401170:	f3 0f 1e fa          	endbr64
  401174:	eb 8a                	jmp    401100 <register_tm_clones>

0000000000401176 <exploit_me>:
  401176:	f3 0f 1e fa          	endbr64
  40117a:	55                   	push   rbp
  40117b:	48 89 e5             	mov    rbp,rsp
  40117e:	48 81 ec 00 10 00 00 	sub    rsp,0x1000
  401185:	48 83 0c 24 00       	or     QWORD PTR [rsp],0x0
  40118a:	48 83 ec 30          	sub    rsp,0x30
  40118e:	48 89 bd d8 ef ff ff 	mov    QWORD PTR [rbp-0x1028],rdi
  401195:	48 89 b5 d0 ef ff ff 	mov    QWORD PTR [rbp-0x1030],rsi
  40119c:	48 8b 85 d8 ef ff ff 	mov    rax,QWORD PTR [rbp-0x1028]
  4011a3:	48 89 c6             	mov    rsi,rax
  4011a6:	48 8d 3d 57 0e 00 00 	lea    rdi,[rip+0xe57]        # 402004 <_IO_stdin_used+0x4>
  4011ad:	b8 00 00 00 00       	mov    eax,0x0
  4011b2:	e8 c9 fe ff ff       	call   401080 <printf@plt>
  4011b7:	48 8b 85 d0 ef ff ff 	mov    rax,QWORD PTR [rbp-0x1030]
  4011be:	48 89 c6             	mov    rsi,rax
  4011c1:	48 8d 3d 4d 0e 00 00 	lea    rdi,[rip+0xe4d]        # 402015 <_IO_stdin_used+0x15>
  4011c8:	b8 00 00 00 00       	mov    eax,0x0
  4011cd:	e8 ae fe ff ff       	call   401080 <printf@plt>
  4011d2:	48 8b 95 d8 ef ff ff 	mov    rdx,QWORD PTR [rbp-0x1028]
  4011d9:	48 8d 85 00 f0 ff ff 	lea    rax,[rbp-0x1000]
  4011e0:	48 89 d6             	mov    rsi,rdx
  4011e3:	48 89 c7             	mov    rdi,rax
  4011e6:	e8 75 fe ff ff       	call   401060 <strcpy@plt>
  4011eb:	48 8b 95 d0 ef ff ff 	mov    rdx,QWORD PTR [rbp-0x1030]
  4011f2:	48 8d 85 e0 ef ff ff 	lea    rax,[rbp-0x1020]
  4011f9:	48 89 d6             	mov    rsi,rdx
  4011fc:	48 89 c7             	mov    rdi,rax
  4011ff:	e8 5c fe ff ff       	call   401060 <strcpy@plt>
  401204:	90                   	nop
  401205:	c9                   	leave
  401206:	c3                   	ret

0000000000401207 <main>:
  401207:	f3 0f 1e fa          	endbr64
  40120b:	55                   	push   rbp
  40120c:	48 89 e5             	mov    rbp,rsp
  40120f:	48 83 ec 10          	sub    rsp,0x10
  401213:	89 7d fc             	mov    DWORD PTR [rbp-0x4],edi
  401216:	48 89 75 f0          	mov    QWORD PTR [rbp-0x10],rsi
  40121a:	83 7d fc 03          	cmp    DWORD PTR [rbp-0x4],0x3
  40121e:	74 13                	je     401233 <main+0x2c>
  401220:	48 8d 3d ff 0d 00 00 	lea    rdi,[rip+0xdff]        # 402026 <_IO_stdin_used+0x26>
  401227:	e8 44 fe ff ff       	call   401070 <puts@plt>
  40122c:	b8 01 00 00 00       	mov    eax,0x1
  401231:	eb 26                	jmp    401259 <main+0x52>
  401233:	48 8b 45 f0          	mov    rax,QWORD PTR [rbp-0x10]
  401237:	48 83 c0 10          	add    rax,0x10
  40123b:	48 8b 10             	mov    rdx,QWORD PTR [rax]
  40123e:	48 8b 45 f0          	mov    rax,QWORD PTR [rbp-0x10]
  401242:	48 83 c0 08          	add    rax,0x8
  401246:	48 8b 00             	mov    rax,QWORD PTR [rax]
  401249:	48 89 d6             	mov    rsi,rdx
  40124c:	48 89 c7             	mov    rdi,rax
  40124f:	e8 22 ff ff ff       	call   401176 <exploit_me>
  401254:	b8 00 00 00 00       	mov    eax,0x0
  401259:	c9                   	leave
  40125a:	c3                   	ret
  40125b:	0f 1f 44 00 00       	nop    DWORD PTR [rax+rax*1+0x0]

0000000000401260 <__libc_csu_init>:
  401260:	f3 0f 1e fa          	endbr64
  401264:	41 57                	push   r15
  401266:	4c 8d 3d a3 2b 00 00 	lea    r15,[rip+0x2ba3]        # 403e10 <__frame_dummy_init_array_entry>
  40126d:	41 56                	push   r14
  40126f:	49 89 d6             	mov    r14,rdx
  401272:	41 55                	push   r13
  401274:	49 89 f5             	mov    r13,rsi
  401277:	41 54                	push   r12
  401279:	41 89 fc             	mov    r12d,edi
  40127c:	55                   	push   rbp
  40127d:	48 8d 2d 94 2b 00 00 	lea    rbp,[rip+0x2b94]        # 403e18 <__do_global_dtors_aux_fini_array_entry>
  401284:	53                   	push   rbx
  401285:	4c 29 fd             	sub    rbp,r15
  401288:	48 83 ec 08          	sub    rsp,0x8
  40128c:	e8 6f fd ff ff       	call   401000 <_init>
  401291:	48 c1 fd 03          	sar    rbp,0x3
  401295:	74 1f                	je     4012b6 <__libc_csu_init+0x56>
  401297:	31 db                	xor    ebx,ebx
  401299:	0f 1f 80 00 00 00 00 	nop    DWORD PTR [rax+0x0]
  4012a0:	4c 89 f2             	mov    rdx,r14
  4012a3:	4c 89 ee             	mov    rsi,r13
  4012a6:	44 89 e7             	mov    edi,r12d
  4012a9:	41 ff 14 df          	call   QWORD PTR [r15+rbx*8]
  4012ad:	48 83 c3 01          	add    rbx,0x1
  4012b1:	48 39 dd             	cmp    rbp,rbx
  4012b4:	75 ea                	jne    4012a0 <__libc_csu_init+0x40>
  4012b6:	48 83 c4 08          	add    rsp,0x8
  4012ba:	5b                   	pop    rbx
  4012bb:	5d                   	pop    rbp
  4012bc:	41 5c                	pop    r12
  4012be:	41 5d                	pop    r13
  4012c0:	41 5e                	pop    r14
  4012c2:	41 5f                	pop    r15
  4012c4:	c3                   	ret
  4012c5:	66 66 2e 0f 1f 84 00 	data16 cs nop WORD PTR [rax+rax*1+0x0]
  4012cc:	00 00 00 00 

00000000004012d0 <__libc_csu_fini>:
  4012d0:	f3 0f 1e fa          	endbr64
  4012d4:	c3                   	ret

Disassembly of section .fini:

00000000004012d8 <_fini>:
  4012d8:	f3 0f 1e fa          	endbr64
  4012dc:	48 83 ec 08          	sub    rsp,0x8
  4012e0:	48 83 c4 08          	add    rsp,0x8
  4012e4:	c3                   	ret
