
gg:     file format elf64-x86-64


Disassembly of section .init:

0000000000400880 <_init>:
  400880:	f3 0f 1e fa          	endbr64
  400884:	48 83 ec 08          	sub    rsp,0x8
  400888:	48 8b 05 69 77 02 00 	mov    rax,QWORD PTR [rip+0x27769]        # 427ff8 <__gmon_start__>
  40088f:	48 85 c0             	test   rax,rax
  400892:	74 02                	je     400896 <_init+0x16>
  400894:	ff d0                	call   rax
  400896:	48 83 c4 08          	add    rsp,0x8
  40089a:	c3                   	ret

Disassembly of section .plt:

00000000004008a0 <.plt>:
  4008a0:	ff 35 62 77 02 00    	push   QWORD PTR [rip+0x27762]        # 428008 <_GLOBAL_OFFSET_TABLE_+0x8>
  4008a6:	ff 25 64 77 02 00    	jmp    QWORD PTR [rip+0x27764]        # 428010 <_GLOBAL_OFFSET_TABLE_+0x10>
  4008ac:	0f 1f 40 00          	nop    DWORD PTR [rax+0x0]

00000000004008b0 <putchar@plt>:
  4008b0:	ff 25 62 77 02 00    	jmp    QWORD PTR [rip+0x27762]        # 428018 <putchar@GLIBC_2.2.5>
  4008b6:	68 00 00 00 00       	push   0x0
  4008bb:	e9 e0 ff ff ff       	jmp    4008a0 <.plt>

00000000004008c0 <inflate@plt>:
  4008c0:	ff 25 5a 77 02 00    	jmp    QWORD PTR [rip+0x2775a]        # 428020 <inflate>
  4008c6:	68 01 00 00 00       	push   0x1
  4008cb:	e9 d0 ff ff ff       	jmp    4008a0 <.plt>

00000000004008d0 <puts@plt>:
  4008d0:	ff 25 52 77 02 00    	jmp    QWORD PTR [rip+0x27752]        # 428028 <puts@GLIBC_2.2.5>
  4008d6:	68 02 00 00 00       	push   0x2
  4008db:	e9 c0 ff ff ff       	jmp    4008a0 <.plt>

00000000004008e0 <__stack_chk_fail@plt>:
  4008e0:	ff 25 4a 77 02 00    	jmp    QWORD PTR [rip+0x2774a]        # 428030 <__stack_chk_fail@GLIBC_2.4>
  4008e6:	68 03 00 00 00       	push   0x3
  4008eb:	e9 b0 ff ff ff       	jmp    4008a0 <.plt>

00000000004008f0 <mmap@plt>:
  4008f0:	ff 25 42 77 02 00    	jmp    QWORD PTR [rip+0x27742]        # 428038 <mmap@GLIBC_2.2.5>
  4008f6:	68 04 00 00 00       	push   0x4
  4008fb:	e9 a0 ff ff ff       	jmp    4008a0 <.plt>

0000000000400900 <system@plt>:
  400900:	ff 25 3a 77 02 00    	jmp    QWORD PTR [rip+0x2773a]        # 428040 <system@GLIBC_2.2.5>
  400906:	68 05 00 00 00       	push   0x5
  40090b:	e9 90 ff ff ff       	jmp    4008a0 <.plt>

0000000000400910 <printf@plt>:
  400910:	ff 25 32 77 02 00    	jmp    QWORD PTR [rip+0x27732]        # 428048 <printf@GLIBC_2.2.5>
  400916:	68 06 00 00 00       	push   0x6
  40091b:	e9 80 ff ff ff       	jmp    4008a0 <.plt>

0000000000400920 <__assert_fail@plt>:
  400920:	ff 25 2a 77 02 00    	jmp    QWORD PTR [rip+0x2772a]        # 428050 <__assert_fail@GLIBC_2.2.5>
  400926:	68 07 00 00 00       	push   0x7
  40092b:	e9 70 ff ff ff       	jmp    4008a0 <.plt>

0000000000400930 <fputs@plt>:
  400930:	ff 25 22 77 02 00    	jmp    QWORD PTR [rip+0x27722]        # 428058 <fputs@GLIBC_2.2.5>
  400936:	68 08 00 00 00       	push   0x8
  40093b:	e9 60 ff ff ff       	jmp    4008a0 <.plt>

0000000000400940 <memcmp@plt>:
  400940:	ff 25 1a 77 02 00    	jmp    QWORD PTR [rip+0x2771a]        # 428060 <memcmp@GLIBC_2.2.5>
  400946:	68 09 00 00 00       	push   0x9
  40094b:	e9 50 ff ff ff       	jmp    4008a0 <.plt>

0000000000400950 <execve@plt>:
  400950:	ff 25 12 77 02 00    	jmp    QWORD PTR [rip+0x27712]        # 428068 <execve@GLIBC_2.2.5>
  400956:	68 0a 00 00 00       	push   0xa
  40095b:	e9 40 ff ff ff       	jmp    4008a0 <.plt>

0000000000400960 <getchar@plt>:
  400960:	ff 25 0a 77 02 00    	jmp    QWORD PTR [rip+0x2770a]        # 428070 <getchar@GLIBC_2.2.5>
  400966:	68 0b 00 00 00       	push   0xb
  40096b:	e9 30 ff ff ff       	jmp    4008a0 <.plt>

0000000000400970 <strtol@plt>:
  400970:	ff 25 02 77 02 00    	jmp    QWORD PTR [rip+0x27702]        # 428078 <strtol@GLIBC_2.2.5>
  400976:	68 0c 00 00 00       	push   0xc
  40097b:	e9 20 ff ff ff       	jmp    4008a0 <.plt>

0000000000400980 <inflateEnd@plt>:
  400980:	ff 25 fa 76 02 00    	jmp    QWORD PTR [rip+0x276fa]        # 428080 <inflateEnd>
  400986:	68 0d 00 00 00       	push   0xd
  40098b:	e9 10 ff ff ff       	jmp    4008a0 <.plt>

0000000000400990 <gets@plt>:
  400990:	ff 25 f2 76 02 00    	jmp    QWORD PTR [rip+0x276f2]        # 428088 <gets@GLIBC_2.2.5>
  400996:	68 0e 00 00 00       	push   0xe
  40099b:	e9 00 ff ff ff       	jmp    4008a0 <.plt>

00000000004009a0 <inflateInit_@plt>:
  4009a0:	ff 25 ea 76 02 00    	jmp    QWORD PTR [rip+0x276ea]        # 428090 <inflateInit_>
  4009a6:	68 0f 00 00 00       	push   0xf
  4009ab:	e9 f0 fe ff ff       	jmp    4008a0 <.plt>

00000000004009b0 <mprotect@plt>:
  4009b0:	ff 25 e2 76 02 00    	jmp    QWORD PTR [rip+0x276e2]        # 428098 <mprotect@GLIBC_2.2.5>
  4009b6:	68 10 00 00 00       	push   0x10
  4009bb:	e9 e0 fe ff ff       	jmp    4008a0 <.plt>

00000000004009c0 <exit@plt>:
  4009c0:	ff 25 da 76 02 00    	jmp    QWORD PTR [rip+0x276da]        # 4280a0 <exit@GLIBC_2.2.5>
  4009c6:	68 11 00 00 00       	push   0x11
  4009cb:	e9 d0 fe ff ff       	jmp    4008a0 <.plt>

00000000004009d0 <rand@plt>:
  4009d0:	ff 25 d2 76 02 00    	jmp    QWORD PTR [rip+0x276d2]        # 4280a8 <rand@GLIBC_2.2.5>
  4009d6:	68 12 00 00 00       	push   0x12
  4009db:	e9 c0 fe ff ff       	jmp    4008a0 <.plt>

00000000004009e0 <usleep@plt>:
  4009e0:	ff 25 ca 76 02 00    	jmp    QWORD PTR [rip+0x276ca]        # 4280b0 <usleep@GLIBC_2.2.5>
  4009e6:	68 13 00 00 00       	push   0x13
  4009eb:	e9 b0 fe ff ff       	jmp    4008a0 <.plt>

Disassembly of section .text:

00000000004009f0 <main>:
  4009f0:	f3 0f 1e fa          	endbr64
  4009f4:	48 83 ec 68          	sub    rsp,0x68
  4009f8:	bf 4e 5f 42 00       	mov    edi,0x425f4e
  4009fd:	e8 ce fe ff ff       	call   4008d0 <puts@plt>
  400a02:	48 89 e7             	mov    rdi,rsp
  400a05:	45 31 c9             	xor    r9d,r9d
  400a08:	41 83 c8 ff          	or     r8d,0xffffffff
  400a0c:	ba 02 00 00 00       	mov    edx,0x2
  400a11:	be 20 5a 42 00       	mov    esi,0x425a20
  400a16:	b9 18 00 00 00       	mov    ecx,0x18
  400a1b:	f3 a5                	rep movs DWORD PTR es:[rdi],DWORD PTR ds:[rsi]
  400a1d:	b9 22 00 00 00       	mov    ecx,0x22
  400a22:	be 00 10 00 00       	mov    esi,0x1000
  400a27:	31 ff                	xor    edi,edi
  400a29:	e8 c2 fe ff ff       	call   4008f0 <mmap@plt>
  400a2e:	be 20 12 40 00       	mov    esi,0x401220
  400a33:	b9 1b 01 00 00       	mov    ecx,0x11b
  400a38:	ba 04 00 00 00       	mov    edx,0x4
  400a3d:	48 89 04 24          	mov    QWORD PTR [rsp],rax
  400a41:	48 89 c7             	mov    rdi,rax
  400a44:	f3 a4                	rep movs BYTE PTR es:[rdi],BYTE PTR ds:[rsi]
  400a46:	be 00 10 00 00       	mov    esi,0x1000
  400a4b:	48 89 c7             	mov    rdi,rax
  400a4e:	e8 5d ff ff ff       	call   4009b0 <mprotect@plt>
  400a53:	68 a9 5f 42 00       	push   0x425fa9
  400a58:	41 b9 63 5f 42 00    	mov    r9d,0x425f63
  400a5e:	41 b8 71 5f 42 00    	mov    r8d,0x425f71
  400a64:	68 c9 5f 42 00       	push   0x425fc9
  400a69:	b9 7f 5f 42 00       	mov    ecx,0x425f7f
  400a6e:	ba 8d 5f 42 00       	mov    edx,0x425f8d
  400a73:	31 c0                	xor    eax,eax
  400a75:	68 dd 5f 42 00       	push   0x425fdd
  400a7a:	be 9b 5f 42 00       	mov    esi,0x425f9b
  400a7f:	bf 0b 00 00 00       	mov    edi,0xb
  400a84:	68 f1 5f 42 00       	push   0x425ff1
  400a89:	68 05 60 42 00       	push   0x426005
  400a8e:	68 13 60 42 00       	push   0x426013
  400a93:	e8 df 04 00 00       	call   400f77 <options>
  400a98:	48 83 c4 30          	add    rsp,0x30
  400a9c:	49 89 c0             	mov    r8,rax
  400a9f:	31 c0                	xor    eax,eax
  400aa1:	42 ff 14 c4          	call   QWORD PTR [rsp+r8*8]
  400aa5:	b8 01 00 00 00       	mov    eax,0x1
  400aaa:	48 83 c4 68          	add    rsp,0x68
  400aae:	c3                   	ret
  400aaf:	90                   	nop

0000000000400ab0 <_start>:
  400ab0:	f3 0f 1e fa          	endbr64
  400ab4:	31 ed                	xor    ebp,ebp
  400ab6:	49 89 d1             	mov    r9,rdx
  400ab9:	5e                   	pop    rsi
  400aba:	48 89 e2             	mov    rdx,rsp
  400abd:	48 83 e4 f0          	and    rsp,0xfffffffffffffff0
  400ac1:	50                   	push   rax
  400ac2:	54                   	push   rsp
  400ac3:	49 c7 c0 b0 13 40 00 	mov    r8,0x4013b0
  400aca:	48 c7 c1 40 13 40 00 	mov    rcx,0x401340
  400ad1:	48 c7 c7 f0 09 40 00 	mov    rdi,0x4009f0
  400ad8:	ff 15 12 75 02 00    	call   QWORD PTR [rip+0x27512]        # 427ff0 <__libc_start_main@GLIBC_2.2.5>
  400ade:	f4                   	hlt
  400adf:	90                   	nop

0000000000400ae0 <_dl_relocate_static_pie>:
  400ae0:	f3 0f 1e fa          	endbr64
  400ae4:	c3                   	ret
  400ae5:	66 2e 0f 1f 84 00 00 	cs nop WORD PTR [rax+rax*1+0x0]
  400aec:	00 00 00 
  400aef:	90                   	nop

0000000000400af0 <deregister_tm_clones>:
  400af0:	b8 c8 80 42 00       	mov    eax,0x4280c8
  400af5:	48 3d c8 80 42 00    	cmp    rax,0x4280c8
  400afb:	74 13                	je     400b10 <deregister_tm_clones+0x20>
  400afd:	b8 00 00 00 00       	mov    eax,0x0
  400b02:	48 85 c0             	test   rax,rax
  400b05:	74 09                	je     400b10 <deregister_tm_clones+0x20>
  400b07:	bf c8 80 42 00       	mov    edi,0x4280c8
  400b0c:	ff e0                	jmp    rax
  400b0e:	66 90                	xchg   ax,ax
  400b10:	c3                   	ret
  400b11:	66 66 2e 0f 1f 84 00 	data16 cs nop WORD PTR [rax+rax*1+0x0]
  400b18:	00 00 00 00 
  400b1c:	0f 1f 40 00          	nop    DWORD PTR [rax+0x0]

0000000000400b20 <register_tm_clones>:
  400b20:	be c8 80 42 00       	mov    esi,0x4280c8
  400b25:	48 81 ee c8 80 42 00 	sub    rsi,0x4280c8
  400b2c:	48 89 f0             	mov    rax,rsi
  400b2f:	48 c1 ee 3f          	shr    rsi,0x3f
  400b33:	48 c1 f8 03          	sar    rax,0x3
  400b37:	48 01 c6             	add    rsi,rax
  400b3a:	48 d1 fe             	sar    rsi,1
  400b3d:	74 11                	je     400b50 <register_tm_clones+0x30>
  400b3f:	b8 00 00 00 00       	mov    eax,0x0
  400b44:	48 85 c0             	test   rax,rax
  400b47:	74 07                	je     400b50 <register_tm_clones+0x30>
  400b49:	bf c8 80 42 00       	mov    edi,0x4280c8
  400b4e:	ff e0                	jmp    rax
  400b50:	c3                   	ret
  400b51:	66 66 2e 0f 1f 84 00 	data16 cs nop WORD PTR [rax+rax*1+0x0]
  400b58:	00 00 00 00 
  400b5c:	0f 1f 40 00          	nop    DWORD PTR [rax+0x0]

0000000000400b60 <__do_global_dtors_aux>:
  400b60:	f3 0f 1e fa          	endbr64
  400b64:	80 3d 7d 75 02 00 00 	cmp    BYTE PTR [rip+0x2757d],0x0        # 4280e8 <completed.8061>
  400b6b:	75 13                	jne    400b80 <__do_global_dtors_aux+0x20>
  400b6d:	55                   	push   rbp
  400b6e:	48 89 e5             	mov    rbp,rsp
  400b71:	e8 7a ff ff ff       	call   400af0 <deregister_tm_clones>
  400b76:	c6 05 6b 75 02 00 01 	mov    BYTE PTR [rip+0x2756b],0x1        # 4280e8 <completed.8061>
  400b7d:	5d                   	pop    rbp
  400b7e:	c3                   	ret
  400b7f:	90                   	nop
  400b80:	c3                   	ret
  400b81:	66 66 2e 0f 1f 84 00 	data16 cs nop WORD PTR [rax+rax*1+0x0]
  400b88:	00 00 00 00 
  400b8c:	0f 1f 40 00          	nop    DWORD PTR [rax+0x0]

0000000000400b90 <frame_dummy>:
  400b90:	f3 0f 1e fa          	endbr64
  400b94:	eb 8a                	jmp    400b20 <register_tm_clones>

0000000000400b96 <greetings>:
  400b96:	f3 0f 1e fa          	endbr64
  400b9a:	50                   	push   rax
  400b9b:	58                   	pop    rax
  400b9c:	bf 85 5a 42 00       	mov    edi,0x425a85
  400ba1:	50                   	push   rax
  400ba2:	e8 29 fd ff ff       	call   4008d0 <puts@plt>
  400ba7:	31 ff                	xor    edi,edi
  400ba9:	e8 12 fe ff ff       	call   4009c0 <exit@plt>

0000000000400bae <task1>:
  400bae:	f3 0f 1e fa          	endbr64
  400bb2:	48 83 ec 28          	sub    rsp,0x28
  400bb6:	be 96 0b 40 00       	mov    esi,0x400b96
  400bbb:	bf 94 5a 42 00       	mov    edi,0x425a94
  400bc0:	31 c0                	xor    eax,eax
  400bc2:	e8 49 fd ff ff       	call   400910 <printf@plt>
  400bc7:	48 89 e7             	mov    rdi,rsp
  400bca:	e8 c1 fd ff ff       	call   400990 <gets@plt>
  400bcf:	bf f8 5a 42 00       	mov    edi,0x425af8
  400bd4:	e8 f7 fc ff ff       	call   4008d0 <puts@plt>
  400bd9:	48 83 c4 28          	add    rsp,0x28
  400bdd:	c3                   	ret

0000000000400bde <task2>:
  400bde:	f3 0f 1e fa          	endbr64
  400be2:	48 83 ec 28          	sub    rsp,0x28
  400be6:	bf 08 5b 42 00       	mov    edi,0x425b08
  400beb:	e8 10 fd ff ff       	call   400900 <system@plt>
  400bf0:	48 89 e7             	mov    rdi,rsp
  400bf3:	e8 98 fd ff ff       	call   400990 <gets@plt>
  400bf8:	48 83 c4 28          	add    rsp,0x28
  400bfc:	c3                   	ret

0000000000400bfd <wreck_plt>:
  400bfd:	f3 0f 1e fa          	endbr64
  400c01:	55                   	push   rbp
  400c02:	48 89 fd             	mov    rbp,rdi
  400c05:	ba 06 00 00 00       	mov    edx,0x6
  400c0a:	be 00 10 00 00       	mov    esi,0x1000
  400c0f:	53                   	push   rbx
  400c10:	48 81 e5 00 f0 ff ff 	and    rbp,0xfffffffffffff000
  400c17:	48 89 fb             	mov    rbx,rdi
  400c1a:	50                   	push   rax
  400c1b:	48 89 ef             	mov    rdi,rbp
  400c1e:	e8 8d fd ff ff       	call   4009b0 <mprotect@plt>
  400c23:	c6 03 cc             	mov    BYTE PTR [rbx],0xcc
  400c26:	48 89 ef             	mov    rdi,rbp
  400c29:	59                   	pop    rcx
  400c2a:	ba 04 00 00 00       	mov    edx,0x4
  400c2f:	5b                   	pop    rbx
  400c30:	be 00 10 00 00       	mov    esi,0x1000
  400c35:	5d                   	pop    rbp
  400c36:	e9 75 fd ff ff       	jmp    4009b0 <mprotect@plt>

0000000000400c3b <func3>:
  400c3b:	f3 0f 1e fa          	endbr64
  400c3f:	50                   	push   rax
  400c40:	58                   	pop    rax
  400c41:	48 89 d1             	mov    rcx,rdx
  400c44:	48 83 fe 02          	cmp    rsi,0x2
  400c48:	50                   	push   rax
  400c49:	49 89 f8             	mov    r8,rdi
  400c4c:	0f 94 c2             	sete   dl
  400c4f:	48 83 f9 03          	cmp    rcx,0x3
  400c53:	49 89 f1             	mov    r9,rsi
  400c56:	0f 94 c0             	sete   al
  400c59:	84 c2                	test   dl,al
  400c5b:	74 14                	je     400c71 <func3+0x36>
  400c5d:	48 83 ff 01          	cmp    rdi,0x1
  400c61:	75 0e                	jne    400c71 <func3+0x36>
  400c63:	bf 3b 5b 42 00       	mov    edi,0x425b3b
  400c68:	e8 63 fc ff ff       	call   4008d0 <puts@plt>
  400c6d:	31 ff                	xor    edi,edi
  400c6f:	eb 17                	jmp    400c88 <func3+0x4d>
  400c71:	bf 4d 5b 42 00       	mov    edi,0x425b4d
  400c76:	4c 89 ca             	mov    rdx,r9
  400c79:	4c 89 c6             	mov    rsi,r8
  400c7c:	31 c0                	xor    eax,eax
  400c7e:	e8 8d fc ff ff       	call   400910 <printf@plt>
  400c83:	bf 01 00 00 00       	mov    edi,0x1
  400c88:	e8 33 fd ff ff       	call   4009c0 <exit@plt>

0000000000400c8d <task3>:
  400c8d:	f3 0f 1e fa          	endbr64
  400c91:	48 83 ec 28          	sub    rsp,0x28
  400c95:	bf 6d 5b 42 00       	mov    edi,0x425b6d
  400c9a:	e8 31 fc ff ff       	call   4008d0 <puts@plt>
  400c9f:	48 89 e7             	mov    rdi,rsp
  400ca2:	e8 e9 fc ff ff       	call   400990 <gets@plt>
  400ca7:	48 83 c4 28          	add    rsp,0x28
  400cab:	c3                   	ret

0000000000400cac <task4>:
  400cac:	f3 0f 1e fa          	endbr64
  400cb0:	48 83 ec 28          	sub    rsp,0x28
  400cb4:	bf 8b 5b 42 00       	mov    edi,0x425b8b
  400cb9:	e8 42 fc ff ff       	call   400900 <system@plt>
  400cbe:	bf 00 09 40 00       	mov    edi,0x400900
  400cc3:	e8 35 ff ff ff       	call   400bfd <wreck_plt>
  400cc8:	48 89 e7             	mov    rdi,rsp
  400ccb:	e8 c0 fc ff ff       	call   400990 <gets@plt>
  400cd0:	48 83 c4 28          	add    rsp,0x28
  400cd4:	c3                   	ret

0000000000400cd5 <wreck_got>:
  400cd5:	f3 0f 1e fa          	endbr64
  400cd9:	53                   	push   rbx
  400cda:	8b 47 02             	mov    eax,DWORD PTR [rdi+0x2]
  400cdd:	ba 03 00 00 00       	mov    edx,0x3
  400ce2:	be 00 10 00 00       	mov    esi,0x1000
  400ce7:	48 8d 5c 38 06       	lea    rbx,[rax+rdi*1+0x6]
  400cec:	48 89 df             	mov    rdi,rbx
  400cef:	48 81 e7 00 f0 ff ff 	and    rdi,0xfffffffffffff000
  400cf6:	e8 b5 fc ff ff       	call   4009b0 <mprotect@plt>
  400cfb:	48 b8 41 41 41 41 41 	movabs rax,0x4141414141414141
  400d02:	41 41 41 
  400d05:	48 89 03             	mov    QWORD PTR [rbx],rax
  400d08:	5b                   	pop    rbx
  400d09:	c3                   	ret

0000000000400d0a <task5>:
  400d0a:	f3 0f 1e fa          	endbr64
  400d0e:	48 83 ec 28          	sub    rsp,0x28
  400d12:	bf 2e 5c 42 00       	mov    edi,0x425c2e
  400d17:	e8 b4 fb ff ff       	call   4008d0 <puts@plt>
  400d1c:	bf 00 09 40 00       	mov    edi,0x400900
  400d21:	e8 af ff ff ff       	call   400cd5 <wreck_got>
  400d26:	48 89 e7             	mov    rdi,rsp
  400d29:	e8 62 fc ff ff       	call   400990 <gets@plt>
  400d2e:	48 83 c4 28          	add    rsp,0x28
  400d32:	c3                   	ret

0000000000400d33 <func6>:
  400d33:	f3 0f 1e fa          	endbr64
  400d37:	50                   	push   rax
  400d38:	58                   	pop    rax
  400d39:	50                   	push   rax
  400d3a:	8b 35 18 74 02 00    	mov    esi,DWORD PTR [rip+0x27418]        # 428158 <saved+0x58>
  400d40:	8b 15 16 74 02 00    	mov    edx,DWORD PTR [rip+0x27416]        # 42815c <saved+0x5c>
  400d46:	8d 0c 16             	lea    ecx,[rsi+rdx*1]
  400d49:	39 f9                	cmp    ecx,edi
  400d4b:	75 0e                	jne    400d5b <func6+0x28>
  400d4d:	bf 8a 5c 42 00       	mov    edi,0x425c8a
  400d52:	e8 79 fb ff ff       	call   4008d0 <puts@plt>
  400d57:	31 ff                	xor    edi,edi
  400d59:	eb 14                	jmp    400d6f <func6+0x3c>
  400d5b:	41 89 f8             	mov    r8d,edi
  400d5e:	31 c0                	xor    eax,eax
  400d60:	bf b2 5c 42 00       	mov    edi,0x425cb2
  400d65:	e8 a6 fb ff ff       	call   400910 <printf@plt>
  400d6a:	bf 01 00 00 00       	mov    edi,0x1
  400d6f:	e8 4c fc ff ff       	call   4009c0 <exit@plt>

0000000000400d74 <task6>:
  400d74:	f3 0f 1e fa          	endbr64
  400d78:	48 83 ec 28          	sub    rsp,0x28
  400d7c:	bf cc 5c 42 00       	mov    edi,0x425ccc
  400d81:	e8 4a fb ff ff       	call   4008d0 <puts@plt>
  400d86:	48 89 e7             	mov    rdi,rsp
  400d89:	e8 02 fc ff ff       	call   400990 <gets@plt>
  400d8e:	e8 3d fc ff ff       	call   4009d0 <rand@plt>
  400d93:	89 05 bf 73 02 00    	mov    DWORD PTR [rip+0x273bf],eax        # 428158 <saved+0x58>
  400d99:	e8 32 fc ff ff       	call   4009d0 <rand@plt>
  400d9e:	89 05 b8 73 02 00    	mov    DWORD PTR [rip+0x273b8],eax        # 42815c <saved+0x5c>
  400da4:	8b 0d ae 73 02 00    	mov    ecx,DWORD PTR [rip+0x273ae]        # 428158 <saved+0x58>
  400daa:	8b 15 ac 73 02 00    	mov    edx,DWORD PTR [rip+0x273ac]        # 42815c <saved+0x5c>
  400db0:	48 83 c4 28          	add    rsp,0x28
  400db4:	c3                   	ret

0000000000400db5 <func7>:
  400db5:	f3 0f 1e fa          	endbr64
  400db9:	50                   	push   rax
  400dba:	58                   	pop    rax
  400dbb:	ba 0c 00 00 00       	mov    edx,0xc
  400dc0:	be ec 5c 42 00       	mov    esi,0x425cec
  400dc5:	50                   	push   rax
  400dc6:	48 8b 3d 43 73 02 00 	mov    rdi,QWORD PTR [rip+0x27343]        # 428110 <saved+0x10>
  400dcd:	e8 6e fb ff ff       	call   400940 <memcmp@plt>
  400dd2:	85 c0                	test   eax,eax
  400dd4:	75 0e                	jne    400de4 <func7+0x2f>
  400dd6:	bf f9 5c 42 00       	mov    edi,0x425cf9
  400ddb:	e8 f0 fa ff ff       	call   4008d0 <puts@plt>
  400de0:	31 ff                	xor    edi,edi
  400de2:	eb 0f                	jmp    400df3 <func7+0x3e>
  400de4:	bf 16 5d 42 00       	mov    edi,0x425d16
  400de9:	e8 e2 fa ff ff       	call   4008d0 <puts@plt>
  400dee:	bf 01 00 00 00       	mov    edi,0x1
  400df3:	e8 c8 fb ff ff       	call   4009c0 <exit@plt>

0000000000400df8 <task7>:
  400df8:	f3 0f 1e fa          	endbr64
  400dfc:	48 83 ec 28          	sub    rsp,0x28
  400e00:	bf 2a 5d 42 00       	mov    edi,0x425d2a
  400e05:	e8 c6 fa ff ff       	call   4008d0 <puts@plt>
  400e0a:	48 89 e7             	mov    rdi,rsp
  400e0d:	e8 7e fb ff ff       	call   400990 <gets@plt>
  400e12:	45 31 c9             	xor    r9d,r9d
  400e15:	41 83 c8 ff          	or     r8d,0xffffffff
  400e19:	31 ff                	xor    edi,edi
  400e1b:	b9 62 00 00 00       	mov    ecx,0x62
  400e20:	ba 03 00 00 00       	mov    edx,0x3
  400e25:	be 00 10 00 00       	mov    esi,0x1000
  400e2a:	e8 c1 fa ff ff       	call   4008f0 <mmap@plt>
  400e2f:	48 89 05 da 72 02 00 	mov    QWORD PTR [rip+0x272da],rax        # 428110 <saved+0x10>
  400e36:	48 8b 0d d3 72 02 00 	mov    rcx,QWORD PTR [rip+0x272d3]        # 428110 <saved+0x10>
  400e3d:	48 83 c4 28          	add    rsp,0x28
  400e41:	c3                   	ret

0000000000400e42 <bonus1>:
  400e42:	f3 0f 1e fa          	endbr64
  400e46:	48 83 ec 28          	sub    rsp,0x28
  400e4a:	bf 7d 5d 42 00       	mov    edi,0x425d7d
  400e4f:	e8 7c fa ff ff       	call   4008d0 <puts@plt>
  400e54:	48 89 e7             	mov    rdi,rsp
  400e57:	e8 34 fb ff ff       	call   400990 <gets@plt>
  400e5c:	48 83 c4 28          	add    rsp,0x28
  400e60:	c3                   	ret

0000000000400e61 <rude>:
  400e61:	f3 0f 1e fa          	endbr64
  400e65:	41 54                	push   r12
  400e67:	55                   	push   rbp
  400e68:	53                   	push   rbx
  400e69:	48 83 ec 30          	sub    rsp,0x30
  400e6d:	64 48 8b 04 25 28 00 	mov    rax,QWORD PTR fs:0x28
  400e74:	00 00 
  400e76:	48 89 44 24 28       	mov    QWORD PTR [rsp+0x28],rax
  400e7b:	31 c0                	xor    eax,eax
  400e7d:	48 8d 6c 24 08       	lea    rbp,[rsp+0x8]
  400e82:	bf 99 5d 42 00       	mov    edi,0x425d99
  400e87:	31 db                	xor    ebx,ebx
  400e89:	e8 42 fa ff ff       	call   4008d0 <puts@plt>
  400e8e:	b9 08 00 00 00       	mov    ecx,0x8
  400e93:	31 c0                	xor    eax,eax
  400e95:	48 89 ef             	mov    rdi,rbp
  400e98:	f3 ab                	rep stos DWORD PTR es:[rdi],eax
  400e9a:	41 89 dc             	mov    r12d,ebx
  400e9d:	e8 be fa ff ff       	call   400960 <getchar@plt>
  400ea2:	83 f8 0a             	cmp    eax,0xa
  400ea5:	74 19                	je     400ec0 <rude+0x5f>
  400ea7:	83 f8 ff             	cmp    eax,0xffffffff
  400eaa:	74 14                	je     400ec0 <rude+0x5f>
  400eac:	8d 50 9f             	lea    edx,[rax-0x61]
  400eaf:	83 fa 19             	cmp    edx,0x19
  400eb2:	77 03                	ja     400eb7 <rude+0x56>
  400eb4:	83 e0 df             	and    eax,0xffffffdf
  400eb7:	88 44 1d 00          	mov    BYTE PTR [rbp+rbx*1+0x0],al
  400ebb:	48 ff c3             	inc    rbx
  400ebe:	eb da                	jmp    400e9a <rude+0x39>
  400ec0:	45 85 e4             	test   r12d,r12d
  400ec3:	74 11                	je     400ed6 <rude+0x75>
  400ec5:	48 89 ee             	mov    rsi,rbp
  400ec8:	bf ab 5d 42 00       	mov    edi,0x425dab
  400ecd:	31 c0                	xor    eax,eax
  400ecf:	e8 3c fa ff ff       	call   400910 <printf@plt>
  400ed4:	eb ac                	jmp    400e82 <rude+0x21>
  400ed6:	48 8b 44 24 28       	mov    rax,QWORD PTR [rsp+0x28]
  400edb:	64 48 33 04 25 28 00 	xor    rax,QWORD PTR fs:0x28
  400ee2:	00 00 
  400ee4:	74 05                	je     400eeb <rude+0x8a>
  400ee6:	e8 f5 f9 ff ff       	call   4008e0 <__stack_chk_fail@plt>
  400eeb:	48 83 c4 30          	add    rsp,0x30
  400eef:	5b                   	pop    rbx
  400ef0:	5d                   	pop    rbp
  400ef1:	41 5c                	pop    r12
  400ef3:	c3                   	ret

0000000000400ef4 <bonus2>:
  400ef4:	f3 0f 1e fa          	endbr64
  400ef8:	50                   	push   rax
  400ef9:	bf b6 5d 42 00       	mov    edi,0x425db6
  400efe:	e8 cd f9 ff ff       	call   4008d0 <puts@plt>
  400f03:	31 c0                	xor    eax,eax
  400f05:	5a                   	pop    rdx
  400f06:	e9 56 ff ff ff       	jmp    400e61 <rude>

0000000000400f0b <bonus3>:
  400f0b:	f3 0f 1e fa          	endbr64
  400f0f:	48 83 ec 28          	sub    rsp,0x28
  400f13:	bf 00 09 40 00       	mov    edi,0x400900
  400f18:	e8 b8 fd ff ff       	call   400cd5 <wreck_got>
  400f1d:	bf 50 09 40 00       	mov    edi,0x400950
  400f22:	e8 ae fd ff ff       	call   400cd5 <wreck_got>
  400f27:	bf ed 5d 42 00       	mov    edi,0x425ded
  400f2c:	e8 9f f9 ff ff       	call   4008d0 <puts@plt>
  400f31:	bf 92 5e 42 00       	mov    edi,0x425e92
  400f36:	e8 95 f9 ff ff       	call   4008d0 <puts@plt>
  400f3b:	48 89 e7             	mov    rdi,rsp
  400f3e:	e8 4d fa ff ff       	call   400990 <gets@plt>
  400f43:	31 f6                	xor    esi,esi
  400f45:	31 d2                	xor    edx,edx
  400f47:	48 89 e7             	mov    rdi,rsp
  400f4a:	e8 21 fa ff ff       	call   400970 <strtol@plt>
  400f4f:	48 89 c6             	mov    rsi,rax
  400f52:	48 85 c0             	test   rax,rax
  400f55:	75 0f                	jne    400f66 <bonus3+0x5b>
  400f57:	bf b8 5e 42 00       	mov    edi,0x425eb8
  400f5c:	e8 6f f9 ff ff       	call   4008d0 <puts@plt>
  400f61:	48 83 c4 28          	add    rsp,0x28
  400f65:	c3                   	ret
  400f66:	0f b6 10             	movzx  edx,BYTE PTR [rax]
  400f69:	bf d6 5e 42 00       	mov    edi,0x425ed6
  400f6e:	31 c0                	xor    eax,eax
  400f70:	e8 9b f9 ff ff       	call   400910 <printf@plt>
  400f75:	eb ba                	jmp    400f31 <bonus3+0x26>

0000000000400f77 <options>:
  400f77:	f3 0f 1e fa          	endbr64
  400f7b:	41 54                	push   r12
  400f7d:	55                   	push   rbp
  400f7e:	48 63 ef             	movsxd rbp,edi
  400f81:	53                   	push   rbx
  400f82:	48 83 ec 70          	sub    rsp,0x70
  400f86:	48 89 74 24 48       	mov    QWORD PTR [rsp+0x48],rsi
  400f8b:	48 89 54 24 50       	mov    QWORD PTR [rsp+0x50],rdx
  400f90:	48 89 4c 24 58       	mov    QWORD PTR [rsp+0x58],rcx
  400f95:	4c 89 44 24 60       	mov    QWORD PTR [rsp+0x60],r8
  400f9a:	4c 89 4c 24 68       	mov    QWORD PTR [rsp+0x68],r9
  400f9f:	48 8d 84 24 90 00 00 	lea    rax,[rsp+0x90]
  400fa6:	00 
  400fa7:	c7 44 24 08 08 00 00 	mov    DWORD PTR [rsp+0x8],0x8
  400fae:	00 
  400faf:	bb 01 00 00 00       	mov    ebx,0x1
  400fb4:	48 89 44 24 10       	mov    QWORD PTR [rsp+0x10],rax
  400fb9:	48 8d 44 24 40       	lea    rax,[rsp+0x40]
  400fbe:	48 89 44 24 18       	mov    QWORD PTR [rsp+0x18],rax
  400fc3:	48 39 dd             	cmp    rbp,rbx
  400fc6:	7c 3e                	jl     401006 <options+0x8f>
  400fc8:	8b 54 24 08          	mov    edx,DWORD PTR [rsp+0x8]
  400fcc:	83 fa 2f             	cmp    edx,0x2f
  400fcf:	77 10                	ja     400fe1 <options+0x6a>
  400fd1:	89 d0                	mov    eax,edx
  400fd3:	83 c2 08             	add    edx,0x8
  400fd6:	48 03 44 24 18       	add    rax,QWORD PTR [rsp+0x18]
  400fdb:	89 54 24 08          	mov    DWORD PTR [rsp+0x8],edx
  400fdf:	eb 0e                	jmp    400fef <options+0x78>
  400fe1:	48 8b 44 24 10       	mov    rax,QWORD PTR [rsp+0x10]
  400fe6:	48 8d 50 08          	lea    rdx,[rax+0x8]
  400fea:	48 89 54 24 10       	mov    QWORD PTR [rsp+0x10],rdx
  400fef:	48 8b 10             	mov    rdx,QWORD PTR [rax]
  400ff2:	48 89 de             	mov    rsi,rbx
  400ff5:	bf e4 5e 42 00       	mov    edi,0x425ee4
  400ffa:	31 c0                	xor    eax,eax
  400ffc:	48 ff c3             	inc    rbx
  400fff:	e8 0c f9 ff ff       	call   400910 <printf@plt>
  401004:	eb bd                	jmp    400fc3 <options+0x4c>
  401006:	bf ee 5e 42 00       	mov    edi,0x425eee
  40100b:	31 c0                	xor    eax,eax
  40100d:	31 db                	xor    ebx,ebx
  40100f:	e8 fc f8 ff ff       	call   400910 <printf@plt>
  401014:	41 89 dc             	mov    r12d,ebx
  401017:	e8 44 f9 ff ff       	call   400960 <getchar@plt>
  40101c:	3c 0a                	cmp    al,0xa
  40101e:	74 17                	je     401037 <options+0xc0>
  401020:	3c ff                	cmp    al,0xff
  401022:	74 13                	je     401037 <options+0xc0>
  401024:	88 44 1c 20          	mov    BYTE PTR [rsp+rbx*1+0x20],al
  401028:	48 ff c3             	inc    rbx
  40102b:	48 83 fb 1f          	cmp    rbx,0x1f
  40102f:	75 e3                	jne    401014 <options+0x9d>
  401031:	41 bc 1f 00 00 00    	mov    r12d,0x1f
  401037:	44 89 e0             	mov    eax,r12d
  40103a:	c6 44 04 20 00       	mov    BYTE PTR [rsp+rax*1+0x20],0x0
  40103f:	45 85 e4             	test   r12d,r12d
  401042:	75 07                	jne    40104b <options+0xd4>
  401044:	31 ff                	xor    edi,edi
  401046:	e8 75 f9 ff ff       	call   4009c0 <exit@plt>
  40104b:	31 d2                	xor    edx,edx
  40104d:	31 f6                	xor    esi,esi
  40104f:	48 8d 7c 24 20       	lea    rdi,[rsp+0x20]
  401054:	e8 17 f9 ff ff       	call   400970 <strtol@plt>
  401059:	48 39 c5             	cmp    rbp,rax
  40105c:	7c 05                	jl     401063 <options+0xec>
  40105e:	48 85 c0             	test   rax,rax
  401061:	75 0f                	jne    401072 <options+0xfb>
  401063:	bf f1 5e 42 00       	mov    edi,0x425ef1
  401068:	e8 63 f8 ff ff       	call   4008d0 <puts@plt>
  40106d:	e9 2d ff ff ff       	jmp    400f9f <options+0x28>
  401072:	48 83 c4 70          	add    rsp,0x70
  401076:	5b                   	pop    rbx
  401077:	5d                   	pop    rbp
  401078:	41 5c                	pop    r12
  40107a:	c3                   	ret

000000000040107b <film>:
  40107b:	f3 0f 1e fa          	endbr64
  40107f:	41 56                	push   r14
  401081:	41 55                	push   r13
  401083:	41 54                	push   r12
  401085:	55                   	push   rbp
  401086:	53                   	push   rbx
  401087:	4c 8d 9c 24 00 c0 ff 	lea    r11,[rsp-0x4000]
  40108e:	ff 
  40108f:	48 81 ec 00 10 00 00 	sub    rsp,0x1000
  401096:	48 83 0c 24 00       	or     QWORD PTR [rsp],0x0
  40109b:	4c 39 dc             	cmp    rsp,r11
  40109e:	75 ef                	jne    40108f <film+0x14>
  4010a0:	48 83 c4 80          	add    rsp,0xffffffffffffff80
  4010a4:	ba 70 00 00 00       	mov    edx,0x70
  4010a9:	be f5 5e 42 00       	mov    esi,0x425ef5
  4010ae:	64 48 8b 04 25 28 00 	mov    rax,QWORD PTR fs:0x28
  4010b5:	00 00 
  4010b7:	48 89 84 24 78 40 00 	mov    QWORD PTR [rsp+0x4078],rax
  4010be:	00 
  4010bf:	31 c0                	xor    eax,eax
  4010c1:	48 8d 7c 24 08       	lea    rdi,[rsp+0x8]
  4010c6:	c7 44 24 10 00 00 00 	mov    DWORD PTR [rsp+0x10],0x0
  4010cd:	00 
  4010ce:	48 c7 44 24 48 00 00 	mov    QWORD PTR [rsp+0x48],0x0
  4010d5:	00 00 
  4010d7:	48 c7 44 24 50 00 00 	mov    QWORD PTR [rsp+0x50],0x0
  4010de:	00 00 
  4010e0:	48 c7 44 24 58 00 00 	mov    QWORD PTR [rsp+0x58],0x0
  4010e7:	00 00 
  4010e9:	48 c7 44 24 08 00 00 	mov    QWORD PTR [rsp+0x8],0x0
  4010f0:	00 00 
  4010f2:	e8 a9 f8 ff ff       	call   4009a0 <inflateInit_@plt>
  4010f7:	85 c0                	test   eax,eax
  4010f9:	74 16                	je     401111 <film+0x96>
  4010fb:	b9 80 5a 42 00       	mov    ecx,0x425a80
  401100:	ba 2a 01 00 00       	mov    edx,0x12a
  401105:	be fc 5e 42 00       	mov    esi,0x425efc
  40110a:	bf 01 5f 42 00       	mov    edi,0x425f01
  40110f:	eb 5b                	jmp    40116c <film+0xf1>
  401111:	48 8b 35 c8 6f 02 00 	mov    rsi,QWORD PTR [rip+0x26fc8]        # 4280e0 <stdout@GLIBC_2.2.5>
  401118:	bf 1c 5f 42 00       	mov    edi,0x425f1c
  40111d:	45 31 e4             	xor    r12d,r12d
  401120:	48 c7 44 24 08 00 14 	mov    QWORD PTR [rsp+0x8],0x401400
  401127:	40 00 
  401129:	c7 44 24 10 0e 46 02 	mov    DWORD PTR [rsp+0x10],0x2460e
  401130:	00 
  401131:	4c 8d 6c 24 78       	lea    r13,[rsp+0x78]
  401136:	e8 f5 f7 ff ff       	call   400930 <fputs@plt>
  40113b:	31 f6                	xor    esi,esi
  40113d:	48 8d 7c 24 08       	lea    rdi,[rsp+0x8]
  401142:	4c 89 6c 24 20       	mov    QWORD PTR [rsp+0x20],r13
  401147:	c7 44 24 28 00 40 00 	mov    DWORD PTR [rsp+0x28],0x4000
  40114e:	00 
  40114f:	e8 6c f7 ff ff       	call   4008c0 <inflate@plt>
  401154:	85 c0                	test   eax,eax
  401156:	74 19                	je     401171 <film+0xf6>
  401158:	b9 80 5a 42 00       	mov    ecx,0x425a80
  40115d:	ba 36 01 00 00       	mov    edx,0x136
  401162:	be fc 5e 42 00       	mov    esi,0x425efc
  401167:	bf 23 5f 42 00       	mov    edi,0x425f23
  40116c:	e8 af f7 ff ff       	call   400920 <__assert_fail@plt>
  401171:	bb 00 40 00 00       	mov    ebx,0x4000
  401176:	2b 5c 24 28          	sub    ebx,DWORD PTR [rsp+0x28]
  40117a:	4c 89 ed             	mov    rbp,r13
  40117d:	41 be 0d 00 00 00    	mov    r14d,0xd
  401183:	4c 01 eb             	add    rbx,r13
  401186:	48 39 dd             	cmp    rbp,rbx
  401189:	74 53                	je     4011de <film+0x163>
  40118b:	0f b6 7d 00          	movzx  edi,BYTE PTR [rbp+0x0]
  40118f:	e8 1c f7 ff ff       	call   4008b0 <putchar@plt>
  401194:	ff c0                	inc    eax
  401196:	74 5b                	je     4011f3 <film+0x178>
  401198:	80 7d 00 0a          	cmp    BYTE PTR [rbp+0x0],0xa
  40119c:	75 3b                	jne    4011d9 <film+0x15e>
  40119e:	41 ff c4             	inc    r12d
  4011a1:	31 d2                	xor    edx,edx
  4011a3:	44 89 e0             	mov    eax,r12d
  4011a6:	41 f7 f6             	div    r14d
  4011a9:	85 d2                	test   edx,edx
  4011ab:	75 1b                	jne    4011c8 <film+0x14d>
  4011ad:	bf b8 05 01 00       	mov    edi,0x105b8
  4011b2:	e8 29 f8 ff ff       	call   4009e0 <usleep@plt>
  4011b7:	48 8b 35 22 6f 02 00 	mov    rsi,QWORD PTR [rip+0x26f22]        # 4280e0 <stdout@GLIBC_2.2.5>
  4011be:	bf 46 5f 42 00       	mov    edi,0x425f46
  4011c3:	e8 68 f7 ff ff       	call   400930 <fputs@plt>
  4011c8:	48 8b 35 11 6f 02 00 	mov    rsi,QWORD PTR [rip+0x26f11]        # 4280e0 <stdout@GLIBC_2.2.5>
  4011cf:	bf 4a 5f 42 00       	mov    edi,0x425f4a
  4011d4:	e8 57 f7 ff ff       	call   400930 <fputs@plt>
  4011d9:	48 ff c5             	inc    rbp
  4011dc:	eb a8                	jmp    401186 <film+0x10b>
  4011de:	83 7c 24 28 00       	cmp    DWORD PTR [rsp+0x28],0x0
  4011e3:	0f 84 52 ff ff ff    	je     40113b <film+0xc0>
  4011e9:	48 8d 7c 24 08       	lea    rdi,[rsp+0x8]
  4011ee:	e8 8d f7 ff ff       	call   400980 <inflateEnd@plt>
  4011f3:	48 8b 84 24 78 40 00 	mov    rax,QWORD PTR [rsp+0x4078]
  4011fa:	00 
  4011fb:	64 48 33 04 25 28 00 	xor    rax,QWORD PTR fs:0x28
  401202:	00 00 
  401204:	74 05                	je     40120b <film+0x190>
  401206:	e8 d5 f6 ff ff       	call   4008e0 <__stack_chk_fail@plt>
  40120b:	48 81 c4 80 40 00 00 	add    rsp,0x4080
  401212:	5b                   	pop    rbx
  401213:	5d                   	pop    rbp
  401214:	41 5c                	pop    r12
  401216:	41 5d                	pop    r13
  401218:	41 5e                	pop    r14
  40121a:	c3                   	ret
  40121b:	0f 1f 44 00 00       	nop    DWORD PTR [rax+rax*1+0x0]

0000000000401220 <hidden>:
  401220:	48 8d 05 f9 ff ff ff 	lea    rax,[rip+0xfffffffffffffff9]        # 401220 <hidden>
  401227:	48 3d 20 12 40 00    	cmp    rax,0x401220
  40122d:	74 24                	je     401253 <hidden+0x33>
  40122f:	b8 01 00 00 00       	mov    eax,0x1
  401234:	bf 01 00 00 00       	mov    edi,0x1
  401239:	48 8d 35 37 00 00 00 	lea    rsi,[rip+0x37]        # 401277 <hidden+0x57>
  401240:	ba 21 00 00 00       	mov    edx,0x21
  401245:	0f 05                	syscall
  401247:	b8 3c 00 00 00       	mov    eax,0x3c
  40124c:	bf 00 00 00 00       	mov    edi,0x0
  401251:	0f 05                	syscall
  401253:	b8 01 00 00 00       	mov    eax,0x1
  401258:	bf 01 00 00 00       	mov    edi,0x1
  40125d:	48 8d 35 34 00 00 00 	lea    rsi,[rip+0x34]        # 401298 <hidden+0x78>
  401264:	ba a3 00 00 00       	mov    edx,0xa3
  401269:	0f 05                	syscall
  40126b:	b8 3c 00 00 00       	mov    eax,0x3c
  401270:	bf 01 00 00 00       	mov    edi,0x1
  401275:	0f 05                	syscall
  401277:	59                   	pop    rcx
  401278:	65 73 2c             	gs jae 4012a7 <hidden+0x87>
  40127b:	20 74 68 69          	and    BYTE PTR [rax+rbp*2+0x69],dh
  40127f:	73 20                	jae    4012a1 <hidden+0x81>
  401281:	69 73 20 74 68 65 20 	imul   esi,DWORD PTR [rbx+0x20],0x20656874
  401288:	72 69                	jb     4012f3 <hidden+0xd3>
  40128a:	67 68 74 20 66 75    	addr32 push 0x75662074
  401290:	6e                   	outs   dx,BYTE PTR ds:[rsi]
  401291:	63 74 69 6f          	movsxd esi,DWORD PTR [rcx+rbp*2+0x6f]
  401295:	6e                   	outs   dx,BYTE PTR ds:[rsi]
  401296:	21 0a                	and    DWORD PTR [rdx],ecx
  401298:	54                   	push   rsp
  401299:	68 69 73 20 69       	push   0x69207369
  40129e:	73 20                	jae    4012c0 <hidden+0xa0>
  4012a0:	6e                   	outs   dx,BYTE PTR ds:[rsi]
  4012a1:	6f                   	outs   dx,DWORD PTR ds:[rsi]
  4012a2:	74 20                	je     4012c4 <hidden+0xa4>
  4012a4:	74 68                	je     40130e <hidden+0xee>
  4012a6:	65 20 66 75          	and    BYTE PTR gs:[rsi+0x75],ah
  4012aa:	6e                   	outs   dx,BYTE PTR ds:[rsi]
  4012ab:	63 74 69 6f          	movsxd esi,DWORD PTR [rcx+rbp*2+0x6f]
  4012af:	6e                   	outs   dx,BYTE PTR ds:[rsi]
  4012b0:	20 79 6f             	and    BYTE PTR [rcx+0x6f],bh
  4012b3:	75 20                	jne    4012d5 <hidden+0xb5>
  4012b5:	61                   	(bad)
  4012b6:	72 65                	jb     40131d <hidden+0xfd>
  4012b8:	20 6c 6f 6f          	and    BYTE PTR [rdi+rbp*2+0x6f],ch
  4012bc:	6b 69 6e 67          	imul   ebp,DWORD PTR [rcx+0x6e],0x67
  4012c0:	20 66 6f             	and    BYTE PTR [rsi+0x6f],ah
  4012c3:	72 0a                	jb     4012cf <hidden+0xaf>
  4012c5:	28 48 69             	sub    BYTE PTR [rax+0x69],cl
  4012c8:	6e                   	outs   dx,BYTE PTR ds:[rsi]
  4012c9:	74 3a                	je     401305 <hidden+0xe5>
  4012cb:	20 54 68 65          	and    BYTE PTR [rax+rbp*2+0x65],dl
  4012cf:	72 65                	jb     401336 <hidden+0x116>
  4012d1:	27                   	(bad)
  4012d2:	73 20                	jae    4012f4 <hidden+0xd4>
  4012d4:	61                   	(bad)
  4012d5:	20 70 6f             	and    BYTE PTR [rax+0x6f],dh
  4012d8:	69 6e 74 65 72 20 74 	imul   ebp,DWORD PTR [rsi+0x74],0x74207265
  4012df:	6f                   	outs   dx,DWORD PTR ds:[rsi]
  4012e0:	20 74 68 65          	and    BYTE PTR [rax+rbp*2+0x65],dh
  4012e4:	20 6e 65             	and    BYTE PTR [rsi+0x65],ch
  4012e7:	77 20                	ja     401309 <hidden+0xe9>
  4012e9:	6c                   	ins    BYTE PTR es:[rdi],dx
  4012ea:	6f                   	outs   dx,DWORD PTR ds:[rsi]
  4012eb:	63 61 74             	movsxd esp,DWORD PTR [rcx+0x74]
  4012ee:	69 6f 6e 20 6f 6e 20 	imul   ebp,DWORD PTR [rdi+0x6e],0x206e6f20
  4012f5:	74 68                	je     40135f <__libc_csu_init+0x1f>
  4012f7:	65 20 73 74          	and    BYTE PTR gs:[rbx+0x74],dh
  4012fb:	61                   	(bad)
  4012fc:	63 6b 29             	movsxd ebp,DWORD PTR [rbx+0x29]
  4012ff:	0a 28                	or     ch,BYTE PTR [rax]
  401301:	20 20                	and    BYTE PTR [rax],ah
  401303:	20 20                	and    BYTE PTR [rax],ah
  401305:	20 20                	and    BYTE PTR [rax],ah
  401307:	48 61                	rex.W (bad)
  401309:	76 65                	jbe    401370 <__libc_csu_init+0x30>
  40130b:	20 61 6e             	and    BYTE PTR [rcx+0x6e],ah
  40130e:	6f                   	outs   dx,DWORD PTR ds:[rsi]
  40130f:	74 68                	je     401379 <__libc_csu_init+0x39>
  401311:	65 72 20             	gs jb  401334 <hidden+0x114>
  401314:	6c                   	ins    BYTE PTR es:[rdi],dx
  401315:	6f                   	outs   dx,DWORD PTR ds:[rsi]
  401316:	6f                   	outs   dx,DWORD PTR ds:[rsi]
  401317:	6b 20 61             	imul   esp,DWORD PTR [rax],0x61
  40131a:	74 20                	je     40133c <hidden+0x11c>
  40131c:	60                   	(bad)
  40131d:	6d                   	ins    DWORD PTR es:[rdi],dx
  40131e:	61                   	(bad)
  40131f:	69 6e 60 2e 20 20 20 	imul   ebp,DWORD PTR [rsi+0x60],0x2020202e
  401326:	20 20                	and    BYTE PTR [rax],ah
  401328:	20 20                	and    BYTE PTR [rax],ah
  40132a:	20 20                	and    BYTE PTR [rax],ah
  40132c:	20 20                	and    BYTE PTR [rax],ah
  40132e:	20 20                	and    BYTE PTR [rax],ah
  401330:	20 20                	and    BYTE PTR [rax],ah
  401332:	20 20                	and    BYTE PTR [rax],ah
  401334:	20 20                	and    BYTE PTR [rax],ah
  401336:	20 20                	and    BYTE PTR [rax],ah
  401338:	20 29                	and    BYTE PTR [rcx],ch
  40133a:	0a 0f                	or     cl,BYTE PTR [rdi]
  40133c:	1f                   	(bad)
  40133d:	44 00 00             	add    BYTE PTR [rax],r8b

0000000000401340 <__libc_csu_init>:
  401340:	f3 0f 1e fa          	endbr64
  401344:	41 57                	push   r15
  401346:	4c 8d 3d b3 6a 02 00 	lea    r15,[rip+0x26ab3]        # 427e00 <__frame_dummy_init_array_entry>
  40134d:	41 56                	push   r14
  40134f:	49 89 d6             	mov    r14,rdx
  401352:	41 55                	push   r13
  401354:	49 89 f5             	mov    r13,rsi
  401357:	41 54                	push   r12
  401359:	41 89 fc             	mov    r12d,edi
  40135c:	55                   	push   rbp
  40135d:	48 8d 2d a4 6a 02 00 	lea    rbp,[rip+0x26aa4]        # 427e08 <__do_global_dtors_aux_fini_array_entry>
  401364:	53                   	push   rbx
  401365:	4c 29 fd             	sub    rbp,r15
  401368:	48 83 ec 08          	sub    rsp,0x8
  40136c:	e8 0f f5 ff ff       	call   400880 <_init>
  401371:	48 c1 fd 03          	sar    rbp,0x3
  401375:	74 1f                	je     401396 <__libc_csu_init+0x56>
  401377:	31 db                	xor    ebx,ebx
  401379:	0f 1f 80 00 00 00 00 	nop    DWORD PTR [rax+0x0]
  401380:	4c 89 f2             	mov    rdx,r14
  401383:	4c 89 ee             	mov    rsi,r13
  401386:	44 89 e7             	mov    edi,r12d
  401389:	41 ff 14 df          	call   QWORD PTR [r15+rbx*8]
  40138d:	48 83 c3 01          	add    rbx,0x1
  401391:	48 39 dd             	cmp    rbp,rbx
  401394:	75 ea                	jne    401380 <__libc_csu_init+0x40>
  401396:	48 83 c4 08          	add    rsp,0x8
  40139a:	5b                   	pop    rbx
  40139b:	5d                   	pop    rbp
  40139c:	41 5c                	pop    r12
  40139e:	41 5d                	pop    r13
  4013a0:	41 5e                	pop    r14
  4013a2:	41 5f                	pop    r15
  4013a4:	c3                   	ret
  4013a5:	66 66 2e 0f 1f 84 00 	data16 cs nop WORD PTR [rax+rax*1+0x0]
  4013ac:	00 00 00 00 

00000000004013b0 <__libc_csu_fini>:
  4013b0:	f3 0f 1e fa          	endbr64
  4013b4:	c3                   	ret

Disassembly of section .fini:

00000000004013b8 <_fini>:
  4013b8:	f3 0f 1e fa          	endbr64
  4013bc:	48 83 ec 08          	sub    rsp,0x8
  4013c0:	48 83 c4 08          	add    rsp,0x8
  4013c4:	c3                   	ret
