
hello:     file format elf64-x86-64


Disassembly of section .init:

0000000000401000 <_init>:
  401000:	f3 0f 1e fa          	endbr64 
  401004:	48 83 ec 08          	sub    rsp,0x8
  401008:	48 8b 05 e9 2f 00 00 	mov    rax,QWORD PTR [rip+0x2fe9]        # 403ff8 <__gmon_start__>
  40100f:	48 85 c0             	test   rax,rax
  401012:	74 02                	je     401016 <_init+0x16>
  401014:	ff d0                	call   rax
  401016:	48 83 c4 08          	add    rsp,0x8
  40101a:	c3                   	ret    

Disassembly of section .plt:

0000000000401020 <.plt>:
  401020:	ff 35 e2 2f 00 00    	push   QWORD PTR [rip+0x2fe2]        # 404008 <_GLOBAL_OFFSET_TABLE_+0x8>
  401026:	ff 25 e4 2f 00 00    	jmp    QWORD PTR [rip+0x2fe4]        # 404010 <_GLOBAL_OFFSET_TABLE_+0x10>
  40102c:	0f 1f 40 00          	nop    DWORD PTR [rax+0x0]

0000000000401030 <strncmp@plt>:
  401030:	ff 25 e2 2f 00 00    	jmp    QWORD PTR [rip+0x2fe2]        # 404018 <strncmp@GLIBC_2.2.5>
  401036:	68 00 00 00 00       	push   0x0
  40103b:	e9 e0 ff ff ff       	jmp    401020 <.plt>

0000000000401040 <strcpy@plt>:
  401040:	ff 25 da 2f 00 00    	jmp    QWORD PTR [rip+0x2fda]        # 404020 <strcpy@GLIBC_2.2.5>
  401046:	68 01 00 00 00       	push   0x1
  40104b:	e9 d0 ff ff ff       	jmp    401020 <.plt>

0000000000401050 <puts@plt>:
  401050:	ff 25 d2 2f 00 00    	jmp    QWORD PTR [rip+0x2fd2]        # 404028 <puts@GLIBC_2.2.5>
  401056:	68 02 00 00 00       	push   0x2
  40105b:	e9 c0 ff ff ff       	jmp    401020 <.plt>

0000000000401060 <fprintf@plt>:
  401060:	ff 25 ca 2f 00 00    	jmp    QWORD PTR [rip+0x2fca]        # 404030 <fprintf@GLIBC_2.2.5>
  401066:	68 03 00 00 00       	push   0x3
  40106b:	e9 b0 ff ff ff       	jmp    401020 <.plt>

Disassembly of section .text:

0000000000401070 <_start>:
  401070:	f3 0f 1e fa          	endbr64 
  401074:	31 ed                	xor    ebp,ebp
  401076:	49 89 d1             	mov    r9,rdx
  401079:	5e                   	pop    rsi
  40107a:	48 89 e2             	mov    rdx,rsp
  40107d:	48 83 e4 f0          	and    rsp,0xfffffffffffffff0
  401081:	50                   	push   rax
  401082:	54                   	push   rsp
  401083:	49 c7 c0 80 12 40 00 	mov    r8,0x401280
  40108a:	48 c7 c1 10 12 40 00 	mov    rcx,0x401210
  401091:	48 c7 c7 b3 11 40 00 	mov    rdi,0x4011b3
  401098:	ff 15 52 2f 00 00    	call   QWORD PTR [rip+0x2f52]        # 403ff0 <__libc_start_main@GLIBC_2.2.5>
  40109e:	f4                   	hlt    
  40109f:	90                   	nop

00000000004010a0 <_dl_relocate_static_pie>:
  4010a0:	f3 0f 1e fa          	endbr64 
  4010a4:	c3                   	ret    
  4010a5:	66 2e 0f 1f 84 00 00 	nop    WORD PTR cs:[rax+rax*1+0x0]
  4010ac:	00 00 00 
  4010af:	90                   	nop

00000000004010b0 <deregister_tm_clones>:
  4010b0:	b8 48 40 40 00       	mov    eax,0x404048
  4010b5:	48 3d 48 40 40 00    	cmp    rax,0x404048
  4010bb:	74 13                	je     4010d0 <deregister_tm_clones+0x20>
  4010bd:	b8 00 00 00 00       	mov    eax,0x0
  4010c2:	48 85 c0             	test   rax,rax
  4010c5:	74 09                	je     4010d0 <deregister_tm_clones+0x20>
  4010c7:	bf 48 40 40 00       	mov    edi,0x404048
  4010cc:	ff e0                	jmp    rax
  4010ce:	66 90                	xchg   ax,ax
  4010d0:	c3                   	ret    
  4010d1:	66 66 2e 0f 1f 84 00 	data16 nop WORD PTR cs:[rax+rax*1+0x0]
  4010d8:	00 00 00 00 
  4010dc:	0f 1f 40 00          	nop    DWORD PTR [rax+0x0]

00000000004010e0 <register_tm_clones>:
  4010e0:	be 48 40 40 00       	mov    esi,0x404048
  4010e5:	48 81 ee 48 40 40 00 	sub    rsi,0x404048
  4010ec:	48 89 f0             	mov    rax,rsi
  4010ef:	48 c1 ee 3f          	shr    rsi,0x3f
  4010f3:	48 c1 f8 03          	sar    rax,0x3
  4010f7:	48 01 c6             	add    rsi,rax
  4010fa:	48 d1 fe             	sar    rsi,1
  4010fd:	74 11                	je     401110 <register_tm_clones+0x30>
  4010ff:	b8 00 00 00 00       	mov    eax,0x0
  401104:	48 85 c0             	test   rax,rax
  401107:	74 07                	je     401110 <register_tm_clones+0x30>
  401109:	bf 48 40 40 00       	mov    edi,0x404048
  40110e:	ff e0                	jmp    rax
  401110:	c3                   	ret    
  401111:	66 66 2e 0f 1f 84 00 	data16 nop WORD PTR cs:[rax+rax*1+0x0]
  401118:	00 00 00 00 
  40111c:	0f 1f 40 00          	nop    DWORD PTR [rax+0x0]

0000000000401120 <__do_global_dtors_aux>:
  401120:	f3 0f 1e fa          	endbr64 
  401124:	80 3d 3d 2f 00 00 00 	cmp    BYTE PTR [rip+0x2f3d],0x0        # 404068 <completed.8061>
  40112b:	75 13                	jne    401140 <__do_global_dtors_aux+0x20>
  40112d:	55                   	push   rbp
  40112e:	48 89 e5             	mov    rbp,rsp
  401131:	e8 7a ff ff ff       	call   4010b0 <deregister_tm_clones>
  401136:	c6 05 2b 2f 00 00 01 	mov    BYTE PTR [rip+0x2f2b],0x1        # 404068 <completed.8061>
  40113d:	5d                   	pop    rbp
  40113e:	c3                   	ret    
  40113f:	90                   	nop
  401140:	c3                   	ret    
  401141:	66 66 2e 0f 1f 84 00 	data16 nop WORD PTR cs:[rax+rax*1+0x0]
  401148:	00 00 00 00 
  40114c:	0f 1f 40 00          	nop    DWORD PTR [rax+0x0]

0000000000401150 <frame_dummy>:
  401150:	f3 0f 1e fa          	endbr64 
  401154:	eb 8a                	jmp    4010e0 <register_tm_clones>

0000000000401156 <win>:
  401156:	55                   	push   rbp
  401157:	48 89 e5             	mov    rbp,rsp
  40115a:	bf 04 20 40 00       	mov    edi,0x402004
  40115f:	e8 ec fe ff ff       	call   401050 <puts@plt>
  401164:	90                   	nop
  401165:	5d                   	pop    rbp
  401166:	c3                   	ret    

0000000000401167 <func>:
  401167:	55                   	push   rbp
  401168:	48 89 e5             	mov    rbp,rsp
  40116b:	48 83 ec 50          	sub    rsp,0x50
  40116f:	48 89 7d b8          	mov    QWORD PTR [rbp-0x48],rdi
  401173:	48 8b 45 b8          	mov    rax,QWORD PTR [rbp-0x48]
  401177:	48 83 c0 02          	add    rax,0x2
  40117b:	ba 05 00 00 00       	mov    edx,0x5
  401180:	be 13 20 40 00       	mov    esi,0x402013
  401185:	48 89 c7             	mov    rdi,rax
  401188:	e8 a3 fe ff ff       	call   401030 <strncmp@plt>
  40118d:	85 c0                	test   eax,eax
  40118f:	74 0c                	je     40119d <func+0x36>
  401191:	bf 19 20 40 00       	mov    edi,0x402019
  401196:	e8 b5 fe ff ff       	call   401050 <puts@plt>
  40119b:	eb 13                	jmp    4011b0 <func+0x49>
  40119d:	48 8b 55 b8          	mov    rdx,QWORD PTR [rbp-0x48]
  4011a1:	48 8d 45 c0          	lea    rax,[rbp-0x40]
  4011a5:	48 89 d6             	mov    rsi,rdx
  4011a8:	48 89 c7             	mov    rdi,rax
  4011ab:	e8 90 fe ff ff       	call   401040 <strcpy@plt>
  4011b0:	90                   	nop
  4011b1:	c9                   	leave  
  4011b2:	c3                   	ret    

00000000004011b3 <main>:
  4011b3:	55                   	push   rbp
  4011b4:	48 89 e5             	mov    rbp,rsp
  4011b7:	48 83 ec 10          	sub    rsp,0x10
  4011bb:	89 7d fc             	mov    DWORD PTR [rbp-0x4],edi
  4011be:	48 89 75 f0          	mov    QWORD PTR [rbp-0x10],rsi
  4011c2:	83 7d fc 02          	cmp    DWORD PTR [rbp-0x4],0x2
  4011c6:	74 27                	je     4011ef <main+0x3c>
  4011c8:	48 8b 45 f0          	mov    rax,QWORD PTR [rbp-0x10]
  4011cc:	48 8b 10             	mov    rdx,QWORD PTR [rax]
  4011cf:	48 8b 05 8a 2e 00 00 	mov    rax,QWORD PTR [rip+0x2e8a]        # 404060 <stderr@@GLIBC_2.2.5>
  4011d6:	be 36 20 40 00       	mov    esi,0x402036
  4011db:	48 89 c7             	mov    rdi,rax
  4011de:	b8 00 00 00 00       	mov    eax,0x0
  4011e3:	e8 78 fe ff ff       	call   401060 <fprintf@plt>
  4011e8:	b8 01 00 00 00       	mov    eax,0x1
  4011ed:	eb 18                	jmp    401207 <main+0x54>
  4011ef:	48 8b 45 f0          	mov    rax,QWORD PTR [rbp-0x10]
  4011f3:	48 83 c0 08          	add    rax,0x8
  4011f7:	48 8b 00             	mov    rax,QWORD PTR [rax]
  4011fa:	48 89 c7             	mov    rdi,rax
  4011fd:	e8 65 ff ff ff       	call   401167 <func>
  401202:	b8 00 00 00 00       	mov    eax,0x0
  401207:	c9                   	leave  
  401208:	c3                   	ret    
  401209:	0f 1f 80 00 00 00 00 	nop    DWORD PTR [rax+0x0]

0000000000401210 <__libc_csu_init>:
  401210:	f3 0f 1e fa          	endbr64 
  401214:	41 57                	push   r15
  401216:	4c 8d 3d f3 2b 00 00 	lea    r15,[rip+0x2bf3]        # 403e10 <__frame_dummy_init_array_entry>
  40121d:	41 56                	push   r14
  40121f:	49 89 d6             	mov    r14,rdx
  401222:	41 55                	push   r13
  401224:	49 89 f5             	mov    r13,rsi
  401227:	41 54                	push   r12
  401229:	41 89 fc             	mov    r12d,edi
  40122c:	55                   	push   rbp
  40122d:	48 8d 2d e4 2b 00 00 	lea    rbp,[rip+0x2be4]        # 403e18 <__do_global_dtors_aux_fini_array_entry>
  401234:	53                   	push   rbx
  401235:	4c 29 fd             	sub    rbp,r15
  401238:	48 83 ec 08          	sub    rsp,0x8
  40123c:	e8 bf fd ff ff       	call   401000 <_init>
  401241:	48 c1 fd 03          	sar    rbp,0x3
  401245:	74 1f                	je     401266 <__libc_csu_init+0x56>
  401247:	31 db                	xor    ebx,ebx
  401249:	0f 1f 80 00 00 00 00 	nop    DWORD PTR [rax+0x0]
  401250:	4c 89 f2             	mov    rdx,r14
  401253:	4c 89 ee             	mov    rsi,r13
  401256:	44 89 e7             	mov    edi,r12d
  401259:	41 ff 14 df          	call   QWORD PTR [r15+rbx*8]
  40125d:	48 83 c3 01          	add    rbx,0x1
  401261:	48 39 dd             	cmp    rbp,rbx
  401264:	75 ea                	jne    401250 <__libc_csu_init+0x40>
  401266:	48 83 c4 08          	add    rsp,0x8
  40126a:	5b                   	pop    rbx
  40126b:	5d                   	pop    rbp
  40126c:	41 5c                	pop    r12
  40126e:	41 5d                	pop    r13
  401270:	41 5e                	pop    r14
  401272:	41 5f                	pop    r15
  401274:	c3                   	ret    
  401275:	66 66 2e 0f 1f 84 00 	data16 nop WORD PTR cs:[rax+rax*1+0x0]
  40127c:	00 00 00 00 

0000000000401280 <__libc_csu_fini>:
  401280:	f3 0f 1e fa          	endbr64 
  401284:	c3                   	ret    

Disassembly of section .fini:

0000000000401288 <_fini>:
  401288:	f3 0f 1e fa          	endbr64 
  40128c:	48 83 ec 08          	sub    rsp,0x8
  401290:	48 83 c4 08          	add    rsp,0x8
  401294:	c3                   	ret    
