
ex2a:     file format elf64-x86-64


Disassembly of section .init:

0000000000001000 <_init>:
    1000:	f3 0f 1e fa          	endbr64
    1004:	48 83 ec 08          	sub    rsp,0x8
    1008:	48 8b 05 c1 2f 00 00 	mov    rax,QWORD PTR [rip+0x2fc1]        # 3fd0 <__gmon_start__@Base>
    100f:	48 85 c0             	test   rax,rax
    1012:	74 02                	je     1016 <_init+0x16>
    1014:	ff d0                	call   rax
    1016:	48 83 c4 08          	add    rsp,0x8
    101a:	c3                   	ret

Disassembly of section .plt:

0000000000001020 <strcpy@plt-0x10>:
    1020:	ff 35 ca 2f 00 00    	push   QWORD PTR [rip+0x2fca]        # 3ff0 <_GLOBAL_OFFSET_TABLE_+0x8>
    1026:	ff 25 cc 2f 00 00    	jmp    QWORD PTR [rip+0x2fcc]        # 3ff8 <_GLOBAL_OFFSET_TABLE_+0x10>
    102c:	0f 1f 40 00          	nop    DWORD PTR [rax+0x0]

0000000000001030 <strcpy@plt>:
    1030:	ff 25 ca 2f 00 00    	jmp    QWORD PTR [rip+0x2fca]        # 4000 <strcpy@GLIBC_2.2.5>
    1036:	68 00 00 00 00       	push   0x0
    103b:	e9 e0 ff ff ff       	jmp    1020 <_init+0x20>

0000000000001040 <puts@plt>:
    1040:	ff 25 c2 2f 00 00    	jmp    QWORD PTR [rip+0x2fc2]        # 4008 <puts@GLIBC_2.2.5>
    1046:	68 01 00 00 00       	push   0x1
    104b:	e9 d0 ff ff ff       	jmp    1020 <_init+0x20>

Disassembly of section .text:

0000000000001050 <_start>:
    1050:	f3 0f 1e fa          	endbr64
    1054:	31 ed                	xor    ebp,ebp
    1056:	49 89 d1             	mov    r9,rdx
    1059:	5e                   	pop    rsi
    105a:	48 89 e2             	mov    rdx,rsp
    105d:	48 83 e4 f0          	and    rsp,0xfffffffffffffff0
    1061:	50                   	push   rax
    1062:	54                   	push   rsp
    1063:	45 31 c0             	xor    r8d,r8d
    1066:	31 c9                	xor    ecx,ecx
    1068:	48 8d 3d 1d 01 00 00 	lea    rdi,[rip+0x11d]        # 118c <main>
    106f:	ff 15 4b 2f 00 00    	call   QWORD PTR [rip+0x2f4b]        # 3fc0 <__libc_start_main@GLIBC_2.34>
    1075:	f4                   	hlt
    1076:	66 2e 0f 1f 84 00 00 	cs nop WORD PTR [rax+rax*1+0x0]
    107d:	00 00 00 
    1080:	48 8d 3d 99 2f 00 00 	lea    rdi,[rip+0x2f99]        # 4020 <__TMC_END__>
    1087:	48 8d 05 92 2f 00 00 	lea    rax,[rip+0x2f92]        # 4020 <__TMC_END__>
    108e:	48 39 f8             	cmp    rax,rdi
    1091:	74 15                	je     10a8 <_start+0x58>
    1093:	48 8b 05 2e 2f 00 00 	mov    rax,QWORD PTR [rip+0x2f2e]        # 3fc8 <_ITM_deregisterTMCloneTable@Base>
    109a:	48 85 c0             	test   rax,rax
    109d:	74 09                	je     10a8 <_start+0x58>
    109f:	ff e0                	jmp    rax
    10a1:	0f 1f 80 00 00 00 00 	nop    DWORD PTR [rax+0x0]
    10a8:	c3                   	ret
    10a9:	0f 1f 80 00 00 00 00 	nop    DWORD PTR [rax+0x0]
    10b0:	48 8d 3d 69 2f 00 00 	lea    rdi,[rip+0x2f69]        # 4020 <__TMC_END__>
    10b7:	48 8d 35 62 2f 00 00 	lea    rsi,[rip+0x2f62]        # 4020 <__TMC_END__>
    10be:	48 29 fe             	sub    rsi,rdi
    10c1:	48 89 f0             	mov    rax,rsi
    10c4:	48 c1 ee 3f          	shr    rsi,0x3f
    10c8:	48 c1 f8 03          	sar    rax,0x3
    10cc:	48 01 c6             	add    rsi,rax
    10cf:	48 d1 fe             	sar    rsi,1
    10d2:	74 14                	je     10e8 <_start+0x98>
    10d4:	48 8b 05 fd 2e 00 00 	mov    rax,QWORD PTR [rip+0x2efd]        # 3fd8 <_ITM_registerTMCloneTable@Base>
    10db:	48 85 c0             	test   rax,rax
    10de:	74 08                	je     10e8 <_start+0x98>
    10e0:	ff e0                	jmp    rax
    10e2:	66 0f 1f 44 00 00    	nop    WORD PTR [rax+rax*1+0x0]
    10e8:	c3                   	ret
    10e9:	0f 1f 80 00 00 00 00 	nop    DWORD PTR [rax+0x0]
    10f0:	f3 0f 1e fa          	endbr64
    10f4:	80 3d 25 2f 00 00 00 	cmp    BYTE PTR [rip+0x2f25],0x0        # 4020 <__TMC_END__>
    10fb:	75 33                	jne    1130 <_start+0xe0>
    10fd:	55                   	push   rbp
    10fe:	48 83 3d da 2e 00 00 	cmp    QWORD PTR [rip+0x2eda],0x0        # 3fe0 <__cxa_finalize@GLIBC_2.2.5>
    1105:	00 
    1106:	48 89 e5             	mov    rbp,rsp
    1109:	74 0d                	je     1118 <_start+0xc8>
    110b:	48 8b 3d 06 2f 00 00 	mov    rdi,QWORD PTR [rip+0x2f06]        # 4018 <__dso_handle>
    1112:	ff 15 c8 2e 00 00    	call   QWORD PTR [rip+0x2ec8]        # 3fe0 <__cxa_finalize@GLIBC_2.2.5>
    1118:	e8 63 ff ff ff       	call   1080 <_start+0x30>
    111d:	c6 05 fc 2e 00 00 01 	mov    BYTE PTR [rip+0x2efc],0x1        # 4020 <__TMC_END__>
    1124:	5d                   	pop    rbp
    1125:	c3                   	ret
    1126:	66 2e 0f 1f 84 00 00 	cs nop WORD PTR [rax+rax*1+0x0]
    112d:	00 00 00 
    1130:	c3                   	ret
    1131:	66 66 2e 0f 1f 84 00 	data16 cs nop WORD PTR [rax+rax*1+0x0]
    1138:	00 00 00 00 
    113c:	0f 1f 40 00          	nop    DWORD PTR [rax+0x0]
    1140:	f3 0f 1e fa          	endbr64
    1144:	e9 67 ff ff ff       	jmp    10b0 <_start+0x60>

0000000000001149 <exploit_me>:
    1149:	55                   	push   rbp
    114a:	48 89 e5             	mov    rbp,rsp
    114d:	48 83 ec 40          	sub    rsp,0x40
    1151:	48 89 7d c8          	mov    QWORD PTR [rbp-0x38],rdi
    1155:	c7 45 d0 00 00 00 00 	mov    DWORD PTR [rbp-0x30],0x0
    115c:	48 8b 45 c8          	mov    rax,QWORD PTR [rbp-0x38]
    1160:	48 8d 55 d0          	lea    rdx,[rbp-0x30]
    1164:	48 83 c2 04          	add    rdx,0x4
    1168:	48 89 c6             	mov    rsi,rax
    116b:	48 89 d7             	mov    rdi,rdx
    116e:	e8 bd fe ff ff       	call   1030 <strcpy@plt>
    1173:	8b 45 d0             	mov    eax,DWORD PTR [rbp-0x30]
    1176:	85 c0                	test   eax,eax
    1178:	74 0f                	je     1189 <exploit_me+0x40>
    117a:	48 8d 05 83 0e 00 00 	lea    rax,[rip+0xe83]        # 2004 <_IO_stdin_used+0x4>
    1181:	48 89 c7             	mov    rdi,rax
    1184:	e8 b7 fe ff ff       	call   1040 <puts@plt>
    1189:	90                   	nop
    118a:	c9                   	leave
    118b:	c3                   	ret

000000000000118c <main>:
    118c:	55                   	push   rbp
    118d:	48 89 e5             	mov    rbp,rsp
    1190:	48 83 ec 10          	sub    rsp,0x10
    1194:	89 7d fc             	mov    DWORD PTR [rbp-0x4],edi
    1197:	48 89 75 f0          	mov    QWORD PTR [rbp-0x10],rsi
    119b:	48 8b 45 f0          	mov    rax,QWORD PTR [rbp-0x10]
    119f:	48 83 c0 08          	add    rax,0x8
    11a3:	48 8b 00             	mov    rax,QWORD PTR [rax]
    11a6:	48 89 c7             	mov    rdi,rax
    11a9:	e8 9b ff ff ff       	call   1149 <exploit_me>
    11ae:	b8 00 00 00 00       	mov    eax,0x0
    11b3:	c9                   	leave
    11b4:	c3                   	ret

Disassembly of section .fini:

00000000000011b8 <_fini>:
    11b8:	f3 0f 1e fa          	endbr64
    11bc:	48 83 ec 08          	sub    rsp,0x8
    11c0:	48 83 c4 08          	add    rsp,0x8
    11c4:	c3                   	ret
